Archive member included to satisfy reference by file (symbol)

c:/program files (x86)/atmel/studio/7.0/toolchain/avr8/avr8-gnu-toolchain/bin/../lib/gcc/avr/4.9.2/../../../../avr/lib/avr51\libm.a(addsf3.o)
                              interface/pads/curves/Curves.o (__subsf3)
c:/program files (x86)/atmel/studio/7.0/toolchain/avr8/avr8-gnu-toolchain/bin/../lib/gcc/avr/4.9.2/../../../../avr/lib/avr51\libm.a(addsf3x.o)
                              c:/program files (x86)/atmel/studio/7.0/toolchain/avr8/avr8-gnu-toolchain/bin/../lib/gcc/avr/4.9.2/../../../../avr/lib/avr51\libm.a(addsf3.o) (__addsf3x)
c:/program files (x86)/atmel/studio/7.0/toolchain/avr8/avr8-gnu-toolchain/bin/../lib/gcc/avr/4.9.2/../../../../avr/lib/avr51\libm.a(cmpsf2.o)
                              interface/pads/curves/Curves.o (__ltsf2)
c:/program files (x86)/atmel/studio/7.0/toolchain/avr8/avr8-gnu-toolchain/bin/../lib/gcc/avr/4.9.2/../../../../avr/lib/avr51\libm.a(divsf3.o)
                              interface/pads/curves/Curves.o (__divsf3)
c:/program files (x86)/atmel/studio/7.0/toolchain/avr8/avr8-gnu-toolchain/bin/../lib/gcc/avr/4.9.2/../../../../avr/lib/avr51\libm.a(divsf3x.o)
                              c:/program files (x86)/atmel/studio/7.0/toolchain/avr8/avr8-gnu-toolchain/bin/../lib/gcc/avr/4.9.2/../../../../avr/lib/avr51\libm.a(divsf3.o) (__divsf3x)
c:/program files (x86)/atmel/studio/7.0/toolchain/avr8/avr8-gnu-toolchain/bin/../lib/gcc/avr/4.9.2/../../../../avr/lib/avr51\libm.a(fixunssfsi.o)
                              interface/pads/curves/Curves.o (__fixunssfsi)
c:/program files (x86)/atmel/studio/7.0/toolchain/avr8/avr8-gnu-toolchain/bin/../lib/gcc/avr/4.9.2/../../../../avr/lib/avr51\libm.a(floatsisf.o)
                              interface/pads/curves/Curves.o (__floatunsisf)
c:/program files (x86)/atmel/studio/7.0/toolchain/avr8/avr8-gnu-toolchain/bin/../lib/gcc/avr/4.9.2/../../../../avr/lib/avr51\libm.a(fp_cmp.o)
                              c:/program files (x86)/atmel/studio/7.0/toolchain/avr8/avr8-gnu-toolchain/bin/../lib/gcc/avr/4.9.2/../../../../avr/lib/avr51\libm.a(cmpsf2.o) (__fp_cmp)
c:/program files (x86)/atmel/studio/7.0/toolchain/avr8/avr8-gnu-toolchain/bin/../lib/gcc/avr/4.9.2/../../../../avr/lib/avr51\libm.a(fp_inf.o)
                              c:/program files (x86)/atmel/studio/7.0/toolchain/avr8/avr8-gnu-toolchain/bin/../lib/gcc/avr/4.9.2/../../../../avr/lib/avr51\libm.a(addsf3x.o) (__fp_inf)
c:/program files (x86)/atmel/studio/7.0/toolchain/avr8/avr8-gnu-toolchain/bin/../lib/gcc/avr/4.9.2/../../../../avr/lib/avr51\libm.a(fp_nan.o)
                              c:/program files (x86)/atmel/studio/7.0/toolchain/avr8/avr8-gnu-toolchain/bin/../lib/gcc/avr/4.9.2/../../../../avr/lib/avr51\libm.a(addsf3x.o) (__fp_nan)
c:/program files (x86)/atmel/studio/7.0/toolchain/avr8/avr8-gnu-toolchain/bin/../lib/gcc/avr/4.9.2/../../../../avr/lib/avr51\libm.a(fp_pscA.o)
                              c:/program files (x86)/atmel/studio/7.0/toolchain/avr8/avr8-gnu-toolchain/bin/../lib/gcc/avr/4.9.2/../../../../avr/lib/avr51\libm.a(addsf3x.o) (__fp_pscA)
c:/program files (x86)/atmel/studio/7.0/toolchain/avr8/avr8-gnu-toolchain/bin/../lib/gcc/avr/4.9.2/../../../../avr/lib/avr51\libm.a(fp_pscB.o)
                              c:/program files (x86)/atmel/studio/7.0/toolchain/avr8/avr8-gnu-toolchain/bin/../lib/gcc/avr/4.9.2/../../../../avr/lib/avr51\libm.a(addsf3x.o) (__fp_pscB)
c:/program files (x86)/atmel/studio/7.0/toolchain/avr8/avr8-gnu-toolchain/bin/../lib/gcc/avr/4.9.2/../../../../avr/lib/avr51\libm.a(fp_round.o)
                              c:/program files (x86)/atmel/studio/7.0/toolchain/avr8/avr8-gnu-toolchain/bin/../lib/gcc/avr/4.9.2/../../../../avr/lib/avr51\libm.a(addsf3.o) (__fp_round)
c:/program files (x86)/atmel/studio/7.0/toolchain/avr8/avr8-gnu-toolchain/bin/../lib/gcc/avr/4.9.2/../../../../avr/lib/avr51\libm.a(fp_split3.o)
                              c:/program files (x86)/atmel/studio/7.0/toolchain/avr8/avr8-gnu-toolchain/bin/../lib/gcc/avr/4.9.2/../../../../avr/lib/avr51\libm.a(addsf3x.o) (__fp_split3)
c:/program files (x86)/atmel/studio/7.0/toolchain/avr8/avr8-gnu-toolchain/bin/../lib/gcc/avr/4.9.2/../../../../avr/lib/avr51\libm.a(fp_zero.o)
                              c:/program files (x86)/atmel/studio/7.0/toolchain/avr8/avr8-gnu-toolchain/bin/../lib/gcc/avr/4.9.2/../../../../avr/lib/avr51\libm.a(addsf3x.o) (__fp_zero)
c:/program files (x86)/atmel/studio/7.0/toolchain/avr8/avr8-gnu-toolchain/bin/../lib/gcc/avr/4.9.2/../../../../avr/lib/avr51\libm.a(log.o)
                              interface/pads/curves/Curves.o (log)
c:/program files (x86)/atmel/studio/7.0/toolchain/avr8/avr8-gnu-toolchain/bin/../lib/gcc/avr/4.9.2/../../../../avr/lib/avr51\libm.a(mulsf3.o)
                              interface/pads/curves/Curves.o (__mulsf3)
c:/program files (x86)/atmel/studio/7.0/toolchain/avr8/avr8-gnu-toolchain/bin/../lib/gcc/avr/4.9.2/../../../../avr/lib/avr51\libm.a(mulsf3x.o)
                              c:/program files (x86)/atmel/studio/7.0/toolchain/avr8/avr8-gnu-toolchain/bin/../lib/gcc/avr/4.9.2/../../../../avr/lib/avr51\libm.a(log.o) (__mulsf3x)
c:/program files (x86)/atmel/studio/7.0/toolchain/avr8/avr8-gnu-toolchain/bin/../lib/gcc/avr/4.9.2/../../../../avr/lib/avr51\libm.a(pow.o)
                              interface/pads/curves/Curves.o (pow)
c:/program files (x86)/atmel/studio/7.0/toolchain/avr8/avr8-gnu-toolchain/bin/../lib/gcc/avr/4.9.2/../../../../avr/lib/avr51\libm.a(round.o)
                              interface/pads/curves/Curves.o (round)
c:/program files (x86)/atmel/studio/7.0/toolchain/avr8/avr8-gnu-toolchain/bin/../lib/gcc/avr/4.9.2/../../../../avr/lib/avr51\libm.a(exp.o)
                              c:/program files (x86)/atmel/studio/7.0/toolchain/avr8/avr8-gnu-toolchain/bin/../lib/gcc/avr/4.9.2/../../../../avr/lib/avr51\libm.a(pow.o) (exp)
c:/program files (x86)/atmel/studio/7.0/toolchain/avr8/avr8-gnu-toolchain/bin/../lib/gcc/avr/4.9.2/../../../../avr/lib/avr51\libm.a(fp_mintl.o)
                              c:/program files (x86)/atmel/studio/7.0/toolchain/avr8/avr8-gnu-toolchain/bin/../lib/gcc/avr/4.9.2/../../../../avr/lib/avr51\libm.a(round.o) (__fp_mintl)
c:/program files (x86)/atmel/studio/7.0/toolchain/avr8/avr8-gnu-toolchain/bin/../lib/gcc/avr/4.9.2/../../../../avr/lib/avr51\libm.a(fp_mpack.o)
                              c:/program files (x86)/atmel/studio/7.0/toolchain/avr8/avr8-gnu-toolchain/bin/../lib/gcc/avr/4.9.2/../../../../avr/lib/avr51\libm.a(log.o) (__fp_mpack)
c:/program files (x86)/atmel/studio/7.0/toolchain/avr8/avr8-gnu-toolchain/bin/../lib/gcc/avr/4.9.2/../../../../avr/lib/avr51\libm.a(fp_powser.o)
                              c:/program files (x86)/atmel/studio/7.0/toolchain/avr8/avr8-gnu-toolchain/bin/../lib/gcc/avr/4.9.2/../../../../avr/lib/avr51\libm.a(log.o) (__fp_powser)
c:/program files (x86)/atmel/studio/7.0/toolchain/avr8/avr8-gnu-toolchain/bin/../lib/gcc/avr/4.9.2/../../../../avr/lib/avr51\libm.a(inverse.o)
                              c:/program files (x86)/atmel/studio/7.0/toolchain/avr8/avr8-gnu-toolchain/bin/../lib/gcc/avr/4.9.2/../../../../avr/lib/avr51\libm.a(exp.o) (inverse)
c:/program files (x86)/atmel/studio/7.0/toolchain/avr8/avr8-gnu-toolchain/bin/../lib/gcc/avr/4.9.2/../../../../avr/lib/avr51\libm.a(ldexp.o)
                              c:/program files (x86)/atmel/studio/7.0/toolchain/avr8/avr8-gnu-toolchain/bin/../lib/gcc/avr/4.9.2/../../../../avr/lib/avr51\libm.a(exp.o) (ldexp)
c:/program files (x86)/atmel/studio/7.0/toolchain/avr8/avr8-gnu-toolchain/bin/../lib/gcc/avr/4.9.2/../../../../avr/lib/avr51\libm.a(modf.o)
                              c:/program files (x86)/atmel/studio/7.0/toolchain/avr8/avr8-gnu-toolchain/bin/../lib/gcc/avr/4.9.2/../../../../avr/lib/avr51\libm.a(exp.o) (modf)
c:/program files (x86)/atmel/studio/7.0/toolchain/avr8/avr8-gnu-toolchain/bin/../lib/gcc/avr/4.9.2/avr51\libgcc.a(_mulsi3.o)
                              interface/pads/Scaling.o (__mulsi3)
c:/program files (x86)/atmel/studio/7.0/toolchain/avr8/avr8-gnu-toolchain/bin/../lib/gcc/avr/4.9.2/avr51\libgcc.a(_udivmodsi4.o)
                              hardware/uart/UART.o (__udivmodsi4)
c:/program files (x86)/atmel/studio/7.0/toolchain/avr8/avr8-gnu-toolchain/bin/../lib/gcc/avr/4.9.2/avr51\libgcc.a(_divmodsi4.o)
                              interface/pads/Getters.o (__divmodsi4)
c:/program files (x86)/atmel/studio/7.0/toolchain/avr8/avr8-gnu-toolchain/bin/../lib/gcc/avr/4.9.2/avr51\libgcc.a(_negsi2.o)
                              c:/program files (x86)/atmel/studio/7.0/toolchain/avr8/avr8-gnu-toolchain/bin/../lib/gcc/avr/4.9.2/avr51\libgcc.a(_divmodsi4.o) (__negsi2)
c:/program files (x86)/atmel/studio/7.0/toolchain/avr8/avr8-gnu-toolchain/bin/../lib/gcc/avr/4.9.2/avr51\libgcc.a(_exit.o)
                              c:/program files (x86)/atmel/studio/7.0/toolchain/avr8/avr8-gnu-toolchain/bin/../lib/gcc/avr/4.9.2/../../../../avr/lib/avr51/crtat90usb1286.o (exit)
c:/program files (x86)/atmel/studio/7.0/toolchain/avr8/avr8-gnu-toolchain/bin/../lib/gcc/avr/4.9.2/avr51\libgcc.a(_tablejump2.o)
                              hardware/midi/MIDI.o (__tablejump2__)
c:/program files (x86)/atmel/studio/7.0/toolchain/avr8/avr8-gnu-toolchain/bin/../lib/gcc/avr/4.9.2/avr51\libgcc.a(_copy_data.o)
                              eeprom/Configuration.o (__do_copy_data)
c:/program files (x86)/atmel/studio/7.0/toolchain/avr8/avr8-gnu-toolchain/bin/../lib/gcc/avr/4.9.2/avr51\libgcc.a(_clear_bss.o)
                              eeprom/Configuration.o (__do_clear_bss)
c:/program files (x86)/atmel/studio/7.0/toolchain/avr8/avr8-gnu-toolchain/bin/../lib/gcc/avr/4.9.2/avr51\libgcc.a(_ctors.o)
                              eeprom/Configuration.o (__do_global_ctors)
c:/program files (x86)/atmel/studio/7.0/toolchain/avr8/avr8-gnu-toolchain/bin/../lib/gcc/avr/4.9.2/avr51\libgcc.a(_umulhisi3.o)
                              interface/lcd/menu/Menu.o (__umulhisi3)
c:/program files (x86)/atmel/studio/7.0/toolchain/avr8/avr8-gnu-toolchain/bin/../lib/gcc/avr/4.9.2/avr51\libgcc.a(_muluhisi3.o)
                              interface/pads/Getters.o (__muluhisi3)
c:/program files (x86)/atmel/studio/7.0/toolchain/avr8/avr8-gnu-toolchain/bin/../lib/gcc/avr/4.9.2/../../../../avr/lib/avr51\libc.a(memcpy_P.o)
                              hardware/usb/lufa/LUFA/Drivers/USB/Class/Device/RNDISClassDevice.o (memcpy_P)
c:/program files (x86)/atmel/studio/7.0/toolchain/avr8/avr8-gnu-toolchain/bin/../lib/gcc/avr/4.9.2/../../../../avr/lib/avr51\libc.a(strcpy_P.o)
                              eeprom/Configuration.o (strcpy_P)
c:/program files (x86)/atmel/studio/7.0/toolchain/avr8/avr8-gnu-toolchain/bin/../lib/gcc/avr/4.9.2/../../../../avr/lib/avr51\libc.a(strlen_P.o)
                              hardware/usb/lufa/LUFA/Drivers/USB/Class/Device/CDCClassDevice.o (__strlen_P)
c:/program files (x86)/atmel/studio/7.0/toolchain/avr8/avr8-gnu-toolchain/bin/../lib/gcc/avr/4.9.2/../../../../avr/lib/avr51\libc.a(memcmp.o)
                              hardware/usb/lufa/LUFA/Drivers/USB/Class/Device/HIDClassDevice.o (memcmp)
c:/program files (x86)/atmel/studio/7.0/toolchain/avr8/avr8-gnu-toolchain/bin/../lib/gcc/avr/4.9.2/../../../../avr/lib/avr51\libc.a(memcpy.o)
                              hardware/usb/lufa/LUFA/Drivers/USB/Class/Device/HIDClassDevice.o (memcpy)
c:/program files (x86)/atmel/studio/7.0/toolchain/avr8/avr8-gnu-toolchain/bin/../lib/gcc/avr/4.9.2/../../../../avr/lib/avr51\libc.a(memset.o)
                              hardware/usb/lufa/LUFA/Drivers/USB/Class/Device/HIDClassDevice.o (memset)
c:/program files (x86)/atmel/studio/7.0/toolchain/avr8/avr8-gnu-toolchain/bin/../lib/gcc/avr/4.9.2/../../../../avr/lib/avr51\libc.a(strcat.o)
                              interface/lcd/menu/Menu.o (strcat)
c:/program files (x86)/atmel/studio/7.0/toolchain/avr8/avr8-gnu-toolchain/bin/../lib/gcc/avr/4.9.2/../../../../avr/lib/avr51\libc.a(strcpy.o)
                              interface/lcd/MessageBuilder.o (strcpy)
c:/program files (x86)/atmel/studio/7.0/toolchain/avr8/avr8-gnu-toolchain/bin/../lib/gcc/avr/4.9.2/../../../../avr/lib/avr51\libc.a(strncat.o)
                              interface/lcd/MessageBuilder.o (strncat)
c:/program files (x86)/atmel/studio/7.0/toolchain/avr8/avr8-gnu-toolchain/bin/../lib/gcc/avr/4.9.2/../../../../avr/lib/avr51\libc.a(itoa_ncheck.o)
                              interface/lcd/MessageBuilder.o (__itoa_ncheck)
c:/program files (x86)/atmel/studio/7.0/toolchain/avr8/avr8-gnu-toolchain/bin/../lib/gcc/avr/4.9.2/../../../../avr/lib/avr51\libc.a(utoa_ncheck.o)
                              c:/program files (x86)/atmel/studio/7.0/toolchain/avr8/avr8-gnu-toolchain/bin/../lib/gcc/avr/4.9.2/../../../../avr/lib/avr51\libc.a(itoa_ncheck.o) (__utoa_common)
c:/program files (x86)/atmel/studio/7.0/toolchain/avr8/avr8-gnu-toolchain/bin/../lib/gcc/avr/4.9.2/../../../../avr/lib/avr51\libc.a(strrev.o)
                              c:/program files (x86)/atmel/studio/7.0/toolchain/avr8/avr8-gnu-toolchain/bin/../lib/gcc/avr/4.9.2/../../../../avr/lib/avr51\libc.a(utoa_ncheck.o) (strrev)
c:/program files (x86)/atmel/studio/7.0/toolchain/avr8/avr8-gnu-toolchain/bin/../lib/gcc/avr/4.9.2/../../../../avr/lib/avr51\libat90usb1286.a(eerd_byte.o)
                              eeprom/Configuration.o (eeprom_read_byte)
c:/program files (x86)/atmel/studio/7.0/toolchain/avr8/avr8-gnu-toolchain/bin/../lib/gcc/avr/4.9.2/../../../../avr/lib/avr51\libat90usb1286.a(eerd_word.o)
                              eeprom/Configuration.o (eeprom_read_word)
c:/program files (x86)/atmel/studio/7.0/toolchain/avr8/avr8-gnu-toolchain/bin/../lib/gcc/avr/4.9.2/../../../../avr/lib/avr51\libat90usb1286.a(eeupd_byte.o)
                              eeprom/Configuration.o (eeprom_update_byte)
c:/program files (x86)/atmel/studio/7.0/toolchain/avr8/avr8-gnu-toolchain/bin/../lib/gcc/avr/4.9.2/../../../../avr/lib/avr51\libat90usb1286.a(eeupd_word.o)
                              eeprom/Configuration.o (eeprom_update_word)
c:/program files (x86)/atmel/studio/7.0/toolchain/avr8/avr8-gnu-toolchain/bin/../lib/gcc/avr/4.9.2/../../../../avr/lib/avr51\libat90usb1286.a(eerd_block.o)
                              c:/program files (x86)/atmel/studio/7.0/toolchain/avr8/avr8-gnu-toolchain/bin/../lib/gcc/avr/4.9.2/../../../../avr/lib/avr51\libat90usb1286.a(eerd_word.o) (eeprom_read_blraw)

Allocating common symbols
Common symbol       size              file

USB_IsInitialized   0x1               hardware/usb/lufa/LUFA/Drivers/USB/Core/USBTask.o
USB_DeviceState     0x1               hardware/usb/lufa/LUFA/Drivers/USB/Core/USBTask.o
USB_Device_ConfigurationNumber
                    0x1               hardware/usb/lufa/LUFA/Drivers/USB/Core/DeviceStandardReq.o
USB_Device_CurrentlySelfPowered
                    0x1               hardware/usb/lufa/LUFA/Drivers/USB/Core/DeviceStandardReq.o
USB_ControlRequest  0x8               hardware/usb/lufa/LUFA/Drivers/USB/Core/USBTask.o
USB_Device_RemoteWakeupEnabled
                    0x1               hardware/usb/lufa/LUFA/Drivers/USB/Core/DeviceStandardReq.o

Discarded input sections

 .data          0x00000000        0x0 c:/program files (x86)/atmel/studio/7.0/toolchain/avr8/avr8-gnu-toolchain/bin/../lib/gcc/avr/4.9.2/../../../../avr/lib/avr51/crtat90usb1286.o
 .bss           0x00000000        0x0 c:/program files (x86)/atmel/studio/7.0/toolchain/avr8/avr8-gnu-toolchain/bin/../lib/gcc/avr/4.9.2/../../../../avr/lib/avr51/crtat90usb1286.o
 .text          0x00000000        0x0 eeprom/Configuration.o
 .data          0x00000000        0x0 eeprom/Configuration.o
 .bss           0x00000000        0x0 eeprom/Configuration.o
 .text          0x00000000        0x0 eeprom/MemoryLayout.o
 .data          0x00000000        0x0 eeprom/MemoryLayout.o
 .bss           0x00000000        0x0 eeprom/MemoryLayout.o
 .text          0x00000000        0x0 hardware/adc/ADC.o
 .data          0x00000000        0x0 hardware/adc/ADC.o
 .bss           0x00000000        0x0 hardware/adc/ADC.o
 .text._Z22disconnectDigitalInADCh
                0x00000000       0x22 hardware/adc/ADC.o
 .text          0x00000000        0x0 hardware/i2c/i2c_master.o
 .data          0x00000000        0x0 hardware/i2c/i2c_master.o
 .bss           0x00000000        0x0 hardware/i2c/i2c_master.o
 .text._Z12i2c_read_ackv
                0x00000000       0x16 hardware/i2c/i2c_master.o
 .text._Z12i2c_transmithPhj
                0x00000000       0x5c hardware/i2c/i2c_master.o
 .text._Z11i2c_receivehPhj
                0x00000000       0x6c hardware/i2c/i2c_master.o
 .text._Z12i2c_writeReghhPhj
                0x00000000       0x64 hardware/i2c/i2c_master.o
 .text._Z11i2c_readReghhPhj
                0x00000000       0x86 hardware/i2c/i2c_master.o
 .text          0x00000000        0x0 hardware/lcd/lcd.o
 .data          0x00000000        0x0 hardware/lcd/lcd.o
 .bss           0x00000000        0x0 hardware/lcd/lcd.o
 .text._Z8lcd_datah
                0x00000000       0x14 hardware/lcd/lcd.o
 .text._Z9lcd_getxyv
                0x00000000        0x8 hardware/lcd/lcd.o
 .text._Z8lcd_homev
                0x00000000        0x8 hardware/lcd/lcd.o
 .text._Z10lcd_puts_pPKc
                0x00000000       0x24 hardware/lcd/lcd.o
 .text          0x00000000        0x0 hardware/midi/MIDI.o
 .data          0x00000000        0x0 hardware/midi/MIDI.o
 .bss           0x00000000        0x0 hardware/midi/MIDI.o
 .text._ZN6HWmidi24sendTimeCodeQuarterFrameEh19midiInterfaceType_t
                0x00000000       0x2c hardware/midi/MIDI.o
 .text._ZN6HWmidi24sendTimeCodeQuarterFrameEhh19midiInterfaceType_t
                0x00000000       0x18 hardware/midi/MIDI.o
 .text._ZN6HWmidi16sendSongPositionEj19midiInterfaceType_t
                0x00000000       0x4a hardware/midi/MIDI.o
 .text._ZN6HWmidi14sendSongSelectEh19midiInterfaceType_t
                0x00000000       0x2e hardware/midi/MIDI.o
 .text._ZN6HWmidi15sendTuneRequestE19midiInterfaceType_t
                0x00000000        0xa hardware/midi/MIDI.o
 .text._ZN6HWmidi17sendProgramChangeEhh19midiInterfaceType_t
                0x00000000       0x18 hardware/midi/MIDI.o
 .text._ZN6HWmidi13sendPitchBendEih19midiInterfaceType_t
                0x00000000       0x2a hardware/midi/MIDI.o
 .text._ZNK6HWmidi9getStatusE17midiMessageType_th
                0x00000000        0xa hardware/midi/MIDI.o
 .text._ZN6HWmidi10resetInputEv
                0x00000000        0xe hardware/midi/MIDI.o
 .text._ZNK6HWmidi10getChannelE19midiInterfaceType_t
                0x00000000       0x1a hardware/midi/MIDI.o
 .text._ZNK6HWmidi5checkEv
                0x00000000        0x6 hardware/midi/MIDI.o
 .text._ZNK6HWmidi15getInputChannelEv
                0x00000000        0x6 hardware/midi/MIDI.o
 .text._ZN6HWmidi24getChannelFromStatusByteEh
                0x00000000        0x8 hardware/midi/MIDI.o
 .text._ZN6HWmidi17setThruFilterModeE16midiFilterMode_t
                0x00000000       0x14 hardware/midi/MIDI.o
 .text._ZNK6HWmidi13getFilterModeEv
                0x00000000        0x6 hardware/midi/MIDI.o
 .text._ZNK6HWmidi12getThruStateEv
                0x00000000        0x6 hardware/midi/MIDI.o
 .text._ZN6HWmidi10turnThruOnE16midiFilterMode_t
                0x00000000        0xa hardware/midi/MIDI.o
 .text._ZN6HWmidi11turnThruOffEv
                0x00000000        0x8 hardware/midi/MIDI.o
 .text._ZN6HWmidi10thruFilterEh19midiInterfaceType_t
                0x00000000      0x136 hardware/midi/MIDI.o
 .progmem.gcc_sw_table._ZN6HWmidi10thruFilterEh19midiInterfaceType_t
                0x00000000       0x20 hardware/midi/MIDI.o
 .text          0x00000000        0x0 hardware/reset/Reset.o
 .data          0x00000000        0x0 hardware/reset/Reset.o
 .bss           0x00000000        0x0 hardware/reset/Reset.o
 .text._Z18disablePeripheralsv
                0x00000000       0x26 hardware/reset/Reset.o
 .text._Z16bootloaderRebootv
                0x00000000       0x60 hardware/reset/Reset.o
 .debug_info    0x00000000      0xdba hardware/reset/Reset.o
 .debug_abbrev  0x00000000      0x139 hardware/reset/Reset.o
 .debug_aranges
                0x00000000       0x28 hardware/reset/Reset.o
 .debug_ranges  0x00000000       0x18 hardware/reset/Reset.o
 .debug_line    0x00000000      0x285 hardware/reset/Reset.o
 .debug_str     0x00000000      0xf4d hardware/reset/Reset.o
 .comment       0x00000000       0x31 hardware/reset/Reset.o
 .debug_frame   0x00000000       0x34 hardware/reset/Reset.o
 .text          0x00000000        0x0 hardware/timer/TimerObject.o
 .data          0x00000000        0x0 hardware/timer/TimerObject.o
 .bss           0x00000000        0x0 hardware/timer/TimerObject.o
 .text._ZN11TimerObjectC2Ev
                0x00000000        0x2 hardware/timer/TimerObject.o
 .text          0x00000000        0x0 hardware/uart/UART.o
 .data          0x00000000        0x0 hardware/uart/UART.o
 .bss           0x00000000        0x0 hardware/uart/UART.o
 .text._ZN4UARTC2Ev
                0x00000000        0x2 hardware/uart/UART.o
 .text          0x00000000        0x0 hardware/usb/lufa/LUFA/Drivers/USB/Class/Common/HIDParser.o
 .data          0x00000000        0x0 hardware/usb/lufa/LUFA/Drivers/USB/Class/Common/HIDParser.o
 .bss           0x00000000        0x0 hardware/usb/lufa/LUFA/Drivers/USB/Class/Common/HIDParser.o
 .text.USB_ProcessHIDReport
                0x00000000      0x992 hardware/usb/lufa/LUFA/Drivers/USB/Class/Common/HIDParser.o
 .progmem.gcc_sw_table.USB_ProcessHIDReport
                0x00000000      0x46e hardware/usb/lufa/LUFA/Drivers/USB/Class/Common/HIDParser.o
 .text.USB_GetHIDReportItemInfo
                0x00000000       0xe4 hardware/usb/lufa/LUFA/Drivers/USB/Class/Common/HIDParser.o
 .text.USB_SetHIDReportItemInfo
                0x00000000       0xd4 hardware/usb/lufa/LUFA/Drivers/USB/Class/Common/HIDParser.o
 .text.USB_GetHIDReportSize
                0x00000000       0x74 hardware/usb/lufa/LUFA/Drivers/USB/Class/Common/HIDParser.o
 .debug_info    0x00000000      0x73c hardware/usb/lufa/LUFA/Drivers/USB/Class/Common/HIDParser.o
 .debug_abbrev  0x00000000      0x21e hardware/usb/lufa/LUFA/Drivers/USB/Class/Common/HIDParser.o
 .debug_loc     0x00000000      0xd85 hardware/usb/lufa/LUFA/Drivers/USB/Class/Common/HIDParser.o
 .debug_aranges
                0x00000000       0x38 hardware/usb/lufa/LUFA/Drivers/USB/Class/Common/HIDParser.o
 .debug_ranges  0x00000000       0xc0 hardware/usb/lufa/LUFA/Drivers/USB/Class/Common/HIDParser.o
 .debug_line    0x00000000      0x64e hardware/usb/lufa/LUFA/Drivers/USB/Class/Common/HIDParser.o
 .debug_str     0x00000000      0x6ba hardware/usb/lufa/LUFA/Drivers/USB/Class/Common/HIDParser.o
 .comment       0x00000000       0x31 hardware/usb/lufa/LUFA/Drivers/USB/Class/Common/HIDParser.o
 .debug_frame   0x00000000      0x114 hardware/usb/lufa/LUFA/Drivers/USB/Class/Common/HIDParser.o
 .text          0x00000000        0x0 hardware/usb/lufa/LUFA/Drivers/USB/Class/Device/AudioClassDevice.o
 .data          0x00000000        0x0 hardware/usb/lufa/LUFA/Drivers/USB/Class/Device/AudioClassDevice.o
 .bss           0x00000000        0x0 hardware/usb/lufa/LUFA/Drivers/USB/Class/Device/AudioClassDevice.o
 .text.Audio_Device_ConfigureEndpoints
                0x00000000       0x2c hardware/usb/lufa/LUFA/Drivers/USB/Class/Device/AudioClassDevice.o
 .text.Audio_Device_Event_Stub
                0x00000000        0x2 hardware/usb/lufa/LUFA/Drivers/USB/Class/Device/AudioClassDevice.o
 .text.Audio_Device_ProcessControlRequest
                0x00000000      0x36e hardware/usb/lufa/LUFA/Drivers/USB/Class/Device/AudioClassDevice.o
 .debug_info    0x00000000      0x92f hardware/usb/lufa/LUFA/Drivers/USB/Class/Device/AudioClassDevice.o
 .debug_abbrev  0x00000000      0x1fe hardware/usb/lufa/LUFA/Drivers/USB/Class/Device/AudioClassDevice.o
 .debug_loc     0x00000000      0x3ac hardware/usb/lufa/LUFA/Drivers/USB/Class/Device/AudioClassDevice.o
 .debug_aranges
                0x00000000       0x30 hardware/usb/lufa/LUFA/Drivers/USB/Class/Device/AudioClassDevice.o
 .debug_ranges  0x00000000       0x20 hardware/usb/lufa/LUFA/Drivers/USB/Class/Device/AudioClassDevice.o
 .debug_line    0x00000000      0x479 hardware/usb/lufa/LUFA/Drivers/USB/Class/Device/AudioClassDevice.o
 .debug_str     0x00000000      0x6b2 hardware/usb/lufa/LUFA/Drivers/USB/Class/Device/AudioClassDevice.o
 .comment       0x00000000       0x31 hardware/usb/lufa/LUFA/Drivers/USB/Class/Device/AudioClassDevice.o
 .debug_frame   0x00000000       0xac hardware/usb/lufa/LUFA/Drivers/USB/Class/Device/AudioClassDevice.o
 .text          0x00000000        0x0 hardware/usb/lufa/LUFA/Drivers/USB/Class/Device/CDCClassDevice.o
 .data          0x00000000        0x0 hardware/usb/lufa/LUFA/Drivers/USB/Class/Device/CDCClassDevice.o
 .bss           0x00000000        0x0 hardware/usb/lufa/LUFA/Drivers/USB/Class/Device/CDCClassDevice.o
 .text.CDC_Device_ConfigureEndpoints
                0x00000000       0x4a hardware/usb/lufa/LUFA/Drivers/USB/Class/Device/CDCClassDevice.o
 .text.CDC_Device_SendString
                0x00000000       0x46 hardware/usb/lufa/LUFA/Drivers/USB/Class/Device/CDCClassDevice.o
 .text.CDC_Device_SendString_P
                0x00000000       0x48 hardware/usb/lufa/LUFA/Drivers/USB/Class/Device/CDCClassDevice.o
 .text.CDC_Device_SendData
                0x00000000       0x3a hardware/usb/lufa/LUFA/Drivers/USB/Class/Device/CDCClassDevice.o
 .text.CDC_Device_SendData_P
                0x00000000       0x3a hardware/usb/lufa/LUFA/Drivers/USB/Class/Device/CDCClassDevice.o
 .text.CDC_Device_SendByte
                0x00000000       0x52 hardware/usb/lufa/LUFA/Drivers/USB/Class/Device/CDCClassDevice.o
 .text.CDC_Device_putchar
                0x00000000       0x22 hardware/usb/lufa/LUFA/Drivers/USB/Class/Device/CDCClassDevice.o
 .text.CDC_Device_Flush
                0x00000000       0x62 hardware/usb/lufa/LUFA/Drivers/USB/Class/Device/CDCClassDevice.o
 .text.CDC_Device_USBTask
                0x00000000       0x32 hardware/usb/lufa/LUFA/Drivers/USB/Class/Device/CDCClassDevice.o
 .text.CDC_Device_BytesReceived
                0x00000000       0x5e hardware/usb/lufa/LUFA/Drivers/USB/Class/Device/CDCClassDevice.o
 .text.CDC_Device_ReceiveByte
                0x00000000       0x6c hardware/usb/lufa/LUFA/Drivers/USB/Class/Device/CDCClassDevice.o
 .text.CDC_Device_getchar
                0x00000000       0x14 hardware/usb/lufa/LUFA/Drivers/USB/Class/Device/CDCClassDevice.o
 .text.CDC_Device_getchar_Blocking
                0x00000000       0x34 hardware/usb/lufa/LUFA/Drivers/USB/Class/Device/CDCClassDevice.o
 .rodata        0x00000000        0x8 hardware/usb/lufa/LUFA/Drivers/USB/Class/Device/CDCClassDevice.o
 .text.CDC_Device_SendControlLineStateChange
                0x00000000       0x8e hardware/usb/lufa/LUFA/Drivers/USB/Class/Device/CDCClassDevice.o
 .text.CDC_Device_CreateStream
                0x00000000       0x26 hardware/usb/lufa/LUFA/Drivers/USB/Class/Device/CDCClassDevice.o
 .text.CDC_Device_CreateBlockingStream
                0x00000000       0x26 hardware/usb/lufa/LUFA/Drivers/USB/Class/Device/CDCClassDevice.o
 .text.CDC_Device_Event_Stub
                0x00000000        0x2 hardware/usb/lufa/LUFA/Drivers/USB/Class/Device/CDCClassDevice.o
 .text.CDC_Device_ProcessControlRequest
                0x00000000      0x14e hardware/usb/lufa/LUFA/Drivers/USB/Class/Device/CDCClassDevice.o
 .debug_info    0x00000000     0x103d hardware/usb/lufa/LUFA/Drivers/USB/Class/Device/CDCClassDevice.o
 .debug_abbrev  0x00000000      0x43e hardware/usb/lufa/LUFA/Drivers/USB/Class/Device/CDCClassDevice.o
 .debug_loc     0x00000000      0xa39 hardware/usb/lufa/LUFA/Drivers/USB/Class/Device/CDCClassDevice.o
 .debug_aranges
                0x00000000       0xa8 hardware/usb/lufa/LUFA/Drivers/USB/Class/Device/CDCClassDevice.o
 .debug_ranges  0x00000000       0x98 hardware/usb/lufa/LUFA/Drivers/USB/Class/Device/CDCClassDevice.o
 .debug_line    0x00000000      0x9b2 hardware/usb/lufa/LUFA/Drivers/USB/Class/Device/CDCClassDevice.o
 .debug_str     0x00000000      0xa6f hardware/usb/lufa/LUFA/Drivers/USB/Class/Device/CDCClassDevice.o
 .comment       0x00000000       0x31 hardware/usb/lufa/LUFA/Drivers/USB/Class/Device/CDCClassDevice.o
 .debug_frame   0x00000000      0x188 hardware/usb/lufa/LUFA/Drivers/USB/Class/Device/CDCClassDevice.o
 .text          0x00000000        0x0 hardware/usb/lufa/LUFA/Drivers/USB/Class/Device/HIDClassDevice.o
 .data          0x00000000        0x0 hardware/usb/lufa/LUFA/Drivers/USB/Class/Device/HIDClassDevice.o
 .bss           0x00000000        0x0 hardware/usb/lufa/LUFA/Drivers/USB/Class/Device/HIDClassDevice.o
 .text.HID_Device_ProcessControlRequest
                0x00000000      0x2a6 hardware/usb/lufa/LUFA/Drivers/USB/Class/Device/HIDClassDevice.o
 .text.HID_Device_ConfigureEndpoints
                0x00000000       0x2a hardware/usb/lufa/LUFA/Drivers/USB/Class/Device/HIDClassDevice.o
 .text.HID_Device_USBTask
                0x00000000      0x184 hardware/usb/lufa/LUFA/Drivers/USB/Class/Device/HIDClassDevice.o
 .debug_info    0x00000000      0xa3b hardware/usb/lufa/LUFA/Drivers/USB/Class/Device/HIDClassDevice.o
 .debug_abbrev  0x00000000      0x25d hardware/usb/lufa/LUFA/Drivers/USB/Class/Device/HIDClassDevice.o
 .debug_loc     0x00000000      0x484 hardware/usb/lufa/LUFA/Drivers/USB/Class/Device/HIDClassDevice.o
 .debug_aranges
                0x00000000       0x30 hardware/usb/lufa/LUFA/Drivers/USB/Class/Device/HIDClassDevice.o
 .debug_ranges  0x00000000       0x20 hardware/usb/lufa/LUFA/Drivers/USB/Class/Device/HIDClassDevice.o
 .debug_line    0x00000000      0x5ec hardware/usb/lufa/LUFA/Drivers/USB/Class/Device/HIDClassDevice.o
 .debug_str     0x00000000      0x704 hardware/usb/lufa/LUFA/Drivers/USB/Class/Device/HIDClassDevice.o
 .comment       0x00000000       0x31 hardware/usb/lufa/LUFA/Drivers/USB/Class/Device/HIDClassDevice.o
 .debug_frame   0x00000000       0xf4 hardware/usb/lufa/LUFA/Drivers/USB/Class/Device/HIDClassDevice.o
 .text          0x00000000        0x0 hardware/usb/lufa/LUFA/Drivers/USB/Class/Device/MassStorageClassDevice.o
 .data          0x00000000        0x0 hardware/usb/lufa/LUFA/Drivers/USB/Class/Device/MassStorageClassDevice.o
 .bss           0x00000000        0x0 hardware/usb/lufa/LUFA/Drivers/USB/Class/Device/MassStorageClassDevice.o
 .text.MS_Device_ProcessControlRequest
                0x00000000       0x7e hardware/usb/lufa/LUFA/Drivers/USB/Class/Device/MassStorageClassDevice.o
 .text.MS_Device_ConfigureEndpoints
                0x00000000       0x38 hardware/usb/lufa/LUFA/Drivers/USB/Class/Device/MassStorageClassDevice.o
 .text.MS_Device_USBTask
                0x00000000      0x270 hardware/usb/lufa/LUFA/Drivers/USB/Class/Device/MassStorageClassDevice.o
 .debug_info    0x00000000      0x966 hardware/usb/lufa/LUFA/Drivers/USB/Class/Device/MassStorageClassDevice.o
 .debug_abbrev  0x00000000      0x294 hardware/usb/lufa/LUFA/Drivers/USB/Class/Device/MassStorageClassDevice.o
 .debug_loc     0x00000000      0x2cd hardware/usb/lufa/LUFA/Drivers/USB/Class/Device/MassStorageClassDevice.o
 .debug_aranges
                0x00000000       0x30 hardware/usb/lufa/LUFA/Drivers/USB/Class/Device/MassStorageClassDevice.o
 .debug_ranges  0x00000000       0x50 hardware/usb/lufa/LUFA/Drivers/USB/Class/Device/MassStorageClassDevice.o
 .debug_line    0x00000000      0x51a hardware/usb/lufa/LUFA/Drivers/USB/Class/Device/MassStorageClassDevice.o
 .debug_str     0x00000000      0x7fe hardware/usb/lufa/LUFA/Drivers/USB/Class/Device/MassStorageClassDevice.o
 .comment       0x00000000       0x31 hardware/usb/lufa/LUFA/Drivers/USB/Class/Device/MassStorageClassDevice.o
 .debug_frame   0x00000000       0x80 hardware/usb/lufa/LUFA/Drivers/USB/Class/Device/MassStorageClassDevice.o
 .text          0x00000000        0x0 hardware/usb/lufa/LUFA/Drivers/USB/Class/Device/MIDIClassDevice.o
 .data          0x00000000        0x0 hardware/usb/lufa/LUFA/Drivers/USB/Class/Device/MIDIClassDevice.o
 .bss           0x00000000        0x0 hardware/usb/lufa/LUFA/Drivers/USB/Class/Device/MIDIClassDevice.o
 .text.MIDI_Device_ConfigureEndpoints
                0x00000000       0x2c hardware/usb/lufa/LUFA/Drivers/USB/Class/Device/MIDIClassDevice.o
 .text.MIDI_Device_USBTask
                0x00000000       0x22 hardware/usb/lufa/LUFA/Drivers/USB/Class/Device/MIDIClassDevice.o
 .text.MIDI_Device_ReceiveEventPacket
                0x00000000       0x56 hardware/usb/lufa/LUFA/Drivers/USB/Class/Device/MIDIClassDevice.o
 .text          0x00000000        0x0 hardware/usb/lufa/LUFA/Drivers/USB/Class/Device/PrinterClassDevice.o
 .data          0x00000000        0x0 hardware/usb/lufa/LUFA/Drivers/USB/Class/Device/PrinterClassDevice.o
 .bss           0x00000000        0x0 hardware/usb/lufa/LUFA/Drivers/USB/Class/Device/PrinterClassDevice.o
 .text.PRNT_Device_ConfigureEndpoints
                0x00000000       0x32 hardware/usb/lufa/LUFA/Drivers/USB/Class/Device/PrinterClassDevice.o
 .text.PRNT_Device_SendString
                0x00000000       0x38 hardware/usb/lufa/LUFA/Drivers/USB/Class/Device/PrinterClassDevice.o
 .text.PRNT_Device_SendData
                0x00000000       0x2a hardware/usb/lufa/LUFA/Drivers/USB/Class/Device/PrinterClassDevice.o
 .text.PRNT_Device_SendByte
                0x00000000       0x40 hardware/usb/lufa/LUFA/Drivers/USB/Class/Device/PrinterClassDevice.o
 .text.PRNT_Device_putchar
                0x00000000       0x22 hardware/usb/lufa/LUFA/Drivers/USB/Class/Device/PrinterClassDevice.o
 .text.PRNT_Device_Flush
                0x00000000       0x4e hardware/usb/lufa/LUFA/Drivers/USB/Class/Device/PrinterClassDevice.o
 .text.PRNT_Device_USBTask
                0x00000000       0x8c hardware/usb/lufa/LUFA/Drivers/USB/Class/Device/PrinterClassDevice.o
 .text.PRNT_Device_BytesReceived
                0x00000000       0x48 hardware/usb/lufa/LUFA/Drivers/USB/Class/Device/PrinterClassDevice.o
 .text.PRNT_Device_ReceiveByte
                0x00000000       0x56 hardware/usb/lufa/LUFA/Drivers/USB/Class/Device/PrinterClassDevice.o
 .text.PRNT_Device_getchar
                0x00000000       0x14 hardware/usb/lufa/LUFA/Drivers/USB/Class/Device/PrinterClassDevice.o
 .text.PRNT_Device_getchar_Blocking
                0x00000000       0x34 hardware/usb/lufa/LUFA/Drivers/USB/Class/Device/PrinterClassDevice.o
 .text.PRNT_Device_CreateStream
                0x00000000       0x26 hardware/usb/lufa/LUFA/Drivers/USB/Class/Device/PrinterClassDevice.o
 .text.PRNT_Device_CreateBlockingStream
                0x00000000       0x26 hardware/usb/lufa/LUFA/Drivers/USB/Class/Device/PrinterClassDevice.o
 .text.PRNT_Device_Event_Stub
                0x00000000        0x2 hardware/usb/lufa/LUFA/Drivers/USB/Class/Device/PrinterClassDevice.o
 .text.PRNT_Device_ProcessControlRequest
                0x00000000       0xda hardware/usb/lufa/LUFA/Drivers/USB/Class/Device/PrinterClassDevice.o
 .debug_info    0x00000000      0xcf7 hardware/usb/lufa/LUFA/Drivers/USB/Class/Device/PrinterClassDevice.o
 .debug_abbrev  0x00000000      0x337 hardware/usb/lufa/LUFA/Drivers/USB/Class/Device/PrinterClassDevice.o
 .debug_loc     0x00000000      0x819 hardware/usb/lufa/LUFA/Drivers/USB/Class/Device/PrinterClassDevice.o
 .debug_aranges
                0x00000000       0x90 hardware/usb/lufa/LUFA/Drivers/USB/Class/Device/PrinterClassDevice.o
 .debug_ranges  0x00000000       0x80 hardware/usb/lufa/LUFA/Drivers/USB/Class/Device/PrinterClassDevice.o
 .debug_line    0x00000000      0x73e hardware/usb/lufa/LUFA/Drivers/USB/Class/Device/PrinterClassDevice.o
 .debug_str     0x00000000      0x941 hardware/usb/lufa/LUFA/Drivers/USB/Class/Device/PrinterClassDevice.o
 .comment       0x00000000       0x31 hardware/usb/lufa/LUFA/Drivers/USB/Class/Device/PrinterClassDevice.o
 .debug_frame   0x00000000      0x13c hardware/usb/lufa/LUFA/Drivers/USB/Class/Device/PrinterClassDevice.o
 .text          0x00000000        0x0 hardware/usb/lufa/LUFA/Drivers/USB/Class/Device/RNDISClassDevice.o
 .data          0x00000000        0x0 hardware/usb/lufa/LUFA/Drivers/USB/Class/Device/RNDISClassDevice.o
 .bss           0x00000000        0x0 hardware/usb/lufa/LUFA/Drivers/USB/Class/Device/RNDISClassDevice.o
 .text.RNDIS_Device_ProcessControlRequest
                0x00000000      0x598 hardware/usb/lufa/LUFA/Drivers/USB/Class/Device/RNDISClassDevice.o
 .text.RNDIS_Device_ConfigureEndpoints
                0x00000000       0x66 hardware/usb/lufa/LUFA/Drivers/USB/Class/Device/RNDISClassDevice.o
 .rodata        0x00000000        0x8 hardware/usb/lufa/LUFA/Drivers/USB/Class/Device/RNDISClassDevice.o
 .text.RNDIS_Device_USBTask
                0x00000000       0x80 hardware/usb/lufa/LUFA/Drivers/USB/Class/Device/RNDISClassDevice.o
 .text.RNDIS_Device_IsPacketReceived
                0x00000000       0x2c hardware/usb/lufa/LUFA/Drivers/USB/Class/Device/RNDISClassDevice.o
 .text.RNDIS_Device_ReadPacket
                0x00000000       0xba hardware/usb/lufa/LUFA/Drivers/USB/Class/Device/RNDISClassDevice.o
 .text.RNDIS_Device_SendPacket
                0x00000000       0xe0 hardware/usb/lufa/LUFA/Drivers/USB/Class/Device/RNDISClassDevice.o
 .progmem.data.AdapterSupportedOIDList
                0x00000000       0x6c hardware/usb/lufa/LUFA/Drivers/USB/Class/Device/RNDISClassDevice.o
 .debug_info    0x00000000     0x1175 hardware/usb/lufa/LUFA/Drivers/USB/Class/Device/RNDISClassDevice.o
 .debug_abbrev  0x00000000      0x361 hardware/usb/lufa/LUFA/Drivers/USB/Class/Device/RNDISClassDevice.o
 .debug_loc     0x00000000     0x10d1 hardware/usb/lufa/LUFA/Drivers/USB/Class/Device/RNDISClassDevice.o
 .debug_aranges
                0x00000000       0x48 hardware/usb/lufa/LUFA/Drivers/USB/Class/Device/RNDISClassDevice.o
 .debug_ranges  0x00000000       0x80 hardware/usb/lufa/LUFA/Drivers/USB/Class/Device/RNDISClassDevice.o
 .debug_line    0x00000000      0x7de hardware/usb/lufa/LUFA/Drivers/USB/Class/Device/RNDISClassDevice.o
 .debug_str     0x00000000      0xd74 hardware/usb/lufa/LUFA/Drivers/USB/Class/Device/RNDISClassDevice.o
 .comment       0x00000000       0x31 hardware/usb/lufa/LUFA/Drivers/USB/Class/Device/RNDISClassDevice.o
 .debug_frame   0x00000000      0x114 hardware/usb/lufa/LUFA/Drivers/USB/Class/Device/RNDISClassDevice.o
 .text          0x00000000        0x0 hardware/usb/lufa/LUFA/Drivers/USB/Class/Host/AndroidAccessoryClassHost.o
 .data          0x00000000        0x0 hardware/usb/lufa/LUFA/Drivers/USB/Class/Host/AndroidAccessoryClassHost.o
 .bss           0x00000000        0x0 hardware/usb/lufa/LUFA/Drivers/USB/Class/Host/AndroidAccessoryClassHost.o
 .debug_info    0x00000000       0x56 hardware/usb/lufa/LUFA/Drivers/USB/Class/Host/AndroidAccessoryClassHost.o
 .debug_abbrev  0x00000000       0x26 hardware/usb/lufa/LUFA/Drivers/USB/Class/Host/AndroidAccessoryClassHost.o
 .debug_aranges
                0x00000000       0x18 hardware/usb/lufa/LUFA/Drivers/USB/Class/Host/AndroidAccessoryClassHost.o
 .debug_line    0x00000000       0x1a hardware/usb/lufa/LUFA/Drivers/USB/Class/Host/AndroidAccessoryClassHost.o
 .debug_str     0x00000000      0x1a6 hardware/usb/lufa/LUFA/Drivers/USB/Class/Host/AndroidAccessoryClassHost.o
 .comment       0x00000000       0x31 hardware/usb/lufa/LUFA/Drivers/USB/Class/Host/AndroidAccessoryClassHost.o
 .text          0x00000000        0x0 hardware/usb/lufa/LUFA/Drivers/USB/Class/Host/AudioClassHost.o
 .data          0x00000000        0x0 hardware/usb/lufa/LUFA/Drivers/USB/Class/Host/AudioClassHost.o
 .bss           0x00000000        0x0 hardware/usb/lufa/LUFA/Drivers/USB/Class/Host/AudioClassHost.o
 .debug_info    0x00000000       0x56 hardware/usb/lufa/LUFA/Drivers/USB/Class/Host/AudioClassHost.o
 .debug_abbrev  0x00000000       0x26 hardware/usb/lufa/LUFA/Drivers/USB/Class/Host/AudioClassHost.o
 .debug_aranges
                0x00000000       0x18 hardware/usb/lufa/LUFA/Drivers/USB/Class/Host/AudioClassHost.o
 .debug_line    0x00000000       0x1a hardware/usb/lufa/LUFA/Drivers/USB/Class/Host/AudioClassHost.o
 .debug_str     0x00000000      0x19b hardware/usb/lufa/LUFA/Drivers/USB/Class/Host/AudioClassHost.o
 .comment       0x00000000       0x31 hardware/usb/lufa/LUFA/Drivers/USB/Class/Host/AudioClassHost.o
 .text          0x00000000        0x0 hardware/usb/lufa/LUFA/Drivers/USB/Class/Host/CDCClassHost.o
 .data          0x00000000        0x0 hardware/usb/lufa/LUFA/Drivers/USB/Class/Host/CDCClassHost.o
 .bss           0x00000000        0x0 hardware/usb/lufa/LUFA/Drivers/USB/Class/Host/CDCClassHost.o
 .debug_info    0x00000000       0x56 hardware/usb/lufa/LUFA/Drivers/USB/Class/Host/CDCClassHost.o
 .debug_abbrev  0x00000000       0x26 hardware/usb/lufa/LUFA/Drivers/USB/Class/Host/CDCClassHost.o
 .debug_aranges
                0x00000000       0x18 hardware/usb/lufa/LUFA/Drivers/USB/Class/Host/CDCClassHost.o
 .debug_line    0x00000000       0x1a hardware/usb/lufa/LUFA/Drivers/USB/Class/Host/CDCClassHost.o
 .debug_str     0x00000000      0x199 hardware/usb/lufa/LUFA/Drivers/USB/Class/Host/CDCClassHost.o
 .comment       0x00000000       0x31 hardware/usb/lufa/LUFA/Drivers/USB/Class/Host/CDCClassHost.o
 .text          0x00000000        0x0 hardware/usb/lufa/LUFA/Drivers/USB/Class/Host/HIDClassHost.o
 .data          0x00000000        0x0 hardware/usb/lufa/LUFA/Drivers/USB/Class/Host/HIDClassHost.o
 .bss           0x00000000        0x0 hardware/usb/lufa/LUFA/Drivers/USB/Class/Host/HIDClassHost.o
 .debug_info    0x00000000       0x56 hardware/usb/lufa/LUFA/Drivers/USB/Class/Host/HIDClassHost.o
 .debug_abbrev  0x00000000       0x26 hardware/usb/lufa/LUFA/Drivers/USB/Class/Host/HIDClassHost.o
 .debug_aranges
                0x00000000       0x18 hardware/usb/lufa/LUFA/Drivers/USB/Class/Host/HIDClassHost.o
 .debug_line    0x00000000       0x1a hardware/usb/lufa/LUFA/Drivers/USB/Class/Host/HIDClassHost.o
 .debug_str     0x00000000      0x199 hardware/usb/lufa/LUFA/Drivers/USB/Class/Host/HIDClassHost.o
 .comment       0x00000000       0x31 hardware/usb/lufa/LUFA/Drivers/USB/Class/Host/HIDClassHost.o
 .text          0x00000000        0x0 hardware/usb/lufa/LUFA/Drivers/USB/Class/Host/MassStorageClassHost.o
 .data          0x00000000        0x0 hardware/usb/lufa/LUFA/Drivers/USB/Class/Host/MassStorageClassHost.o
 .bss           0x00000000        0x0 hardware/usb/lufa/LUFA/Drivers/USB/Class/Host/MassStorageClassHost.o
 .debug_info    0x00000000       0x56 hardware/usb/lufa/LUFA/Drivers/USB/Class/Host/MassStorageClassHost.o
 .debug_abbrev  0x00000000       0x26 hardware/usb/lufa/LUFA/Drivers/USB/Class/Host/MassStorageClassHost.o
 .debug_aranges
                0x00000000       0x18 hardware/usb/lufa/LUFA/Drivers/USB/Class/Host/MassStorageClassHost.o
 .debug_line    0x00000000       0x1a hardware/usb/lufa/LUFA/Drivers/USB/Class/Host/MassStorageClassHost.o
 .debug_str     0x00000000      0x1a1 hardware/usb/lufa/LUFA/Drivers/USB/Class/Host/MassStorageClassHost.o
 .comment       0x00000000       0x31 hardware/usb/lufa/LUFA/Drivers/USB/Class/Host/MassStorageClassHost.o
 .text          0x00000000        0x0 hardware/usb/lufa/LUFA/Drivers/USB/Class/Host/MIDIClassHost.o
 .data          0x00000000        0x0 hardware/usb/lufa/LUFA/Drivers/USB/Class/Host/MIDIClassHost.o
 .bss           0x00000000        0x0 hardware/usb/lufa/LUFA/Drivers/USB/Class/Host/MIDIClassHost.o
 .debug_info    0x00000000       0x56 hardware/usb/lufa/LUFA/Drivers/USB/Class/Host/MIDIClassHost.o
 .debug_abbrev  0x00000000       0x26 hardware/usb/lufa/LUFA/Drivers/USB/Class/Host/MIDIClassHost.o
 .debug_aranges
                0x00000000       0x18 hardware/usb/lufa/LUFA/Drivers/USB/Class/Host/MIDIClassHost.o
 .debug_line    0x00000000       0x1a hardware/usb/lufa/LUFA/Drivers/USB/Class/Host/MIDIClassHost.o
 .debug_str     0x00000000      0x19a hardware/usb/lufa/LUFA/Drivers/USB/Class/Host/MIDIClassHost.o
 .comment       0x00000000       0x31 hardware/usb/lufa/LUFA/Drivers/USB/Class/Host/MIDIClassHost.o
 .text          0x00000000        0x0 hardware/usb/lufa/LUFA/Drivers/USB/Class/Host/PrinterClassHost.o
 .data          0x00000000        0x0 hardware/usb/lufa/LUFA/Drivers/USB/Class/Host/PrinterClassHost.o
 .bss           0x00000000        0x0 hardware/usb/lufa/LUFA/Drivers/USB/Class/Host/PrinterClassHost.o
 .debug_info    0x00000000       0x56 hardware/usb/lufa/LUFA/Drivers/USB/Class/Host/PrinterClassHost.o
 .debug_abbrev  0x00000000       0x26 hardware/usb/lufa/LUFA/Drivers/USB/Class/Host/PrinterClassHost.o
 .debug_aranges
                0x00000000       0x18 hardware/usb/lufa/LUFA/Drivers/USB/Class/Host/PrinterClassHost.o
 .debug_line    0x00000000       0x1a hardware/usb/lufa/LUFA/Drivers/USB/Class/Host/PrinterClassHost.o
 .debug_str     0x00000000      0x19d hardware/usb/lufa/LUFA/Drivers/USB/Class/Host/PrinterClassHost.o
 .comment       0x00000000       0x31 hardware/usb/lufa/LUFA/Drivers/USB/Class/Host/PrinterClassHost.o
 .text          0x00000000        0x0 hardware/usb/lufa/LUFA/Drivers/USB/Class/Host/RNDISClassHost.o
 .data          0x00000000        0x0 hardware/usb/lufa/LUFA/Drivers/USB/Class/Host/RNDISClassHost.o
 .bss           0x00000000        0x0 hardware/usb/lufa/LUFA/Drivers/USB/Class/Host/RNDISClassHost.o
 .debug_info    0x00000000       0x56 hardware/usb/lufa/LUFA/Drivers/USB/Class/Host/RNDISClassHost.o
 .debug_abbrev  0x00000000       0x26 hardware/usb/lufa/LUFA/Drivers/USB/Class/Host/RNDISClassHost.o
 .debug_aranges
                0x00000000       0x18 hardware/usb/lufa/LUFA/Drivers/USB/Class/Host/RNDISClassHost.o
 .debug_line    0x00000000       0x1a hardware/usb/lufa/LUFA/Drivers/USB/Class/Host/RNDISClassHost.o
 .debug_str     0x00000000      0x19b hardware/usb/lufa/LUFA/Drivers/USB/Class/Host/RNDISClassHost.o
 .comment       0x00000000       0x31 hardware/usb/lufa/LUFA/Drivers/USB/Class/Host/RNDISClassHost.o
 .text          0x00000000        0x0 hardware/usb/lufa/LUFA/Drivers/USB/Class/Host/StillImageClassHost.o
 .data          0x00000000        0x0 hardware/usb/lufa/LUFA/Drivers/USB/Class/Host/StillImageClassHost.o
 .bss           0x00000000        0x0 hardware/usb/lufa/LUFA/Drivers/USB/Class/Host/StillImageClassHost.o
 .debug_info    0x00000000       0x56 hardware/usb/lufa/LUFA/Drivers/USB/Class/Host/StillImageClassHost.o
 .debug_abbrev  0x00000000       0x26 hardware/usb/lufa/LUFA/Drivers/USB/Class/Host/StillImageClassHost.o
 .debug_aranges
                0x00000000       0x18 hardware/usb/lufa/LUFA/Drivers/USB/Class/Host/StillImageClassHost.o
 .debug_line    0x00000000       0x1a hardware/usb/lufa/LUFA/Drivers/USB/Class/Host/StillImageClassHost.o
 .debug_str     0x00000000      0x1a0 hardware/usb/lufa/LUFA/Drivers/USB/Class/Host/StillImageClassHost.o
 .comment       0x00000000       0x31 hardware/usb/lufa/LUFA/Drivers/USB/Class/Host/StillImageClassHost.o
 .text          0x00000000        0x0 hardware/usb/lufa/LUFA/Drivers/USB/Core/AVR8/Device_AVR8.o
 .data          0x00000000        0x0 hardware/usb/lufa/LUFA/Drivers/USB/Core/AVR8/Device_AVR8.o
 .bss           0x00000000        0x0 hardware/usb/lufa/LUFA/Drivers/USB/Core/AVR8/Device_AVR8.o
 .text.USB_Device_SendRemoteWakeup
                0x00000000       0x2a hardware/usb/lufa/LUFA/Drivers/USB/Core/AVR8/Device_AVR8.o
 .debug_info    0x00000000       0xd2 hardware/usb/lufa/LUFA/Drivers/USB/Core/AVR8/Device_AVR8.o
 .debug_abbrev  0x00000000       0x80 hardware/usb/lufa/LUFA/Drivers/USB/Core/AVR8/Device_AVR8.o
 .debug_aranges
                0x00000000       0x20 hardware/usb/lufa/LUFA/Drivers/USB/Core/AVR8/Device_AVR8.o
 .debug_ranges  0x00000000       0x10 hardware/usb/lufa/LUFA/Drivers/USB/Core/AVR8/Device_AVR8.o
 .debug_line    0x00000000      0x163 hardware/usb/lufa/LUFA/Drivers/USB/Core/AVR8/Device_AVR8.o
 .debug_str     0x00000000      0x1f6 hardware/usb/lufa/LUFA/Drivers/USB/Core/AVR8/Device_AVR8.o
 .comment       0x00000000       0x31 hardware/usb/lufa/LUFA/Drivers/USB/Core/AVR8/Device_AVR8.o
 .debug_frame   0x00000000       0x24 hardware/usb/lufa/LUFA/Drivers/USB/Core/AVR8/Device_AVR8.o
 .text          0x00000000        0x0 hardware/usb/lufa/LUFA/Drivers/USB/Core/AVR8/EndpointStream_AVR8.o
 .data          0x00000000        0x0 hardware/usb/lufa/LUFA/Drivers/USB/Core/AVR8/EndpointStream_AVR8.o
 .bss           0x00000000        0x0 hardware/usb/lufa/LUFA/Drivers/USB/Core/AVR8/EndpointStream_AVR8.o
 .text.Endpoint_Discard_Stream
                0x00000000       0xa2 hardware/usb/lufa/LUFA/Drivers/USB/Core/AVR8/EndpointStream_AVR8.o
 .text.Endpoint_Null_Stream
                0x00000000       0xa2 hardware/usb/lufa/LUFA/Drivers/USB/Core/AVR8/EndpointStream_AVR8.o
 .text.Endpoint_Write_Stream_BE
                0x00000000       0xc6 hardware/usb/lufa/LUFA/Drivers/USB/Core/AVR8/EndpointStream_AVR8.o
 .text.Endpoint_Read_Stream_BE
                0x00000000       0xc6 hardware/usb/lufa/LUFA/Drivers/USB/Core/AVR8/EndpointStream_AVR8.o
 .text.Endpoint_Write_PStream_LE
                0x00000000       0xba hardware/usb/lufa/LUFA/Drivers/USB/Core/AVR8/EndpointStream_AVR8.o
 .text.Endpoint_Write_PStream_BE
                0x00000000       0xc6 hardware/usb/lufa/LUFA/Drivers/USB/Core/AVR8/EndpointStream_AVR8.o
 .text.Endpoint_Write_EStream_LE
                0x00000000       0xbc hardware/usb/lufa/LUFA/Drivers/USB/Core/AVR8/EndpointStream_AVR8.o
 .text.Endpoint_Write_EStream_BE
                0x00000000       0xc8 hardware/usb/lufa/LUFA/Drivers/USB/Core/AVR8/EndpointStream_AVR8.o
 .text.Endpoint_Read_EStream_LE
                0x00000000       0xc0 hardware/usb/lufa/LUFA/Drivers/USB/Core/AVR8/EndpointStream_AVR8.o
 .text.Endpoint_Read_EStream_BE
                0x00000000       0xcc hardware/usb/lufa/LUFA/Drivers/USB/Core/AVR8/EndpointStream_AVR8.o
 .text.Endpoint_Write_Control_Stream_BE
                0x00000000      0x104 hardware/usb/lufa/LUFA/Drivers/USB/Core/AVR8/EndpointStream_AVR8.o
 .text.Endpoint_Read_Control_Stream_LE
                0x00000000       0xcc hardware/usb/lufa/LUFA/Drivers/USB/Core/AVR8/EndpointStream_AVR8.o
 .text.Endpoint_Read_Control_Stream_BE
                0x00000000       0xd2 hardware/usb/lufa/LUFA/Drivers/USB/Core/AVR8/EndpointStream_AVR8.o
 .text.Endpoint_Write_Control_PStream_BE
                0x00000000      0x104 hardware/usb/lufa/LUFA/Drivers/USB/Core/AVR8/EndpointStream_AVR8.o
 .text.Endpoint_Write_Control_EStream_LE
                0x00000000      0x138 hardware/usb/lufa/LUFA/Drivers/USB/Core/AVR8/EndpointStream_AVR8.o
 .text.Endpoint_Write_Control_EStream_BE
                0x00000000      0x140 hardware/usb/lufa/LUFA/Drivers/USB/Core/AVR8/EndpointStream_AVR8.o
 .text.Endpoint_Read_Control_EStream_LE
                0x00000000      0x102 hardware/usb/lufa/LUFA/Drivers/USB/Core/AVR8/EndpointStream_AVR8.o
 .text.Endpoint_Read_Control_EStream_BE
                0x00000000      0x10a hardware/usb/lufa/LUFA/Drivers/USB/Core/AVR8/EndpointStream_AVR8.o
 .text          0x00000000        0x0 hardware/usb/lufa/LUFA/Drivers/USB/Core/AVR8/Endpoint_AVR8.o
 .data          0x00000000        0x0 hardware/usb/lufa/LUFA/Drivers/USB/Core/AVR8/Endpoint_AVR8.o
 .bss           0x00000000        0x0 hardware/usb/lufa/LUFA/Drivers/USB/Core/AVR8/Endpoint_AVR8.o
 .text.Endpoint_ConfigureEndpointTable
                0x00000000       0xce hardware/usb/lufa/LUFA/Drivers/USB/Core/AVR8/Endpoint_AVR8.o
 .text.Endpoint_ClearEndpoints
                0x00000000       0x42 hardware/usb/lufa/LUFA/Drivers/USB/Core/AVR8/Endpoint_AVR8.o
 .text          0x00000000        0x0 hardware/usb/lufa/LUFA/Drivers/USB/Core/AVR8/Host_AVR8.o
 .data          0x00000000        0x0 hardware/usb/lufa/LUFA/Drivers/USB/Core/AVR8/Host_AVR8.o
 .bss           0x00000000        0x0 hardware/usb/lufa/LUFA/Drivers/USB/Core/AVR8/Host_AVR8.o
 .debug_info    0x00000000       0x56 hardware/usb/lufa/LUFA/Drivers/USB/Core/AVR8/Host_AVR8.o
 .debug_abbrev  0x00000000       0x26 hardware/usb/lufa/LUFA/Drivers/USB/Core/AVR8/Host_AVR8.o
 .debug_aranges
                0x00000000       0x18 hardware/usb/lufa/LUFA/Drivers/USB/Core/AVR8/Host_AVR8.o
 .debug_line    0x00000000       0x1a hardware/usb/lufa/LUFA/Drivers/USB/Core/AVR8/Host_AVR8.o
 .debug_str     0x00000000      0x195 hardware/usb/lufa/LUFA/Drivers/USB/Core/AVR8/Host_AVR8.o
 .comment       0x00000000       0x31 hardware/usb/lufa/LUFA/Drivers/USB/Core/AVR8/Host_AVR8.o
 .text          0x00000000        0x0 hardware/usb/lufa/LUFA/Drivers/USB/Core/AVR8/PipeStream_AVR8.o
 .data          0x00000000        0x0 hardware/usb/lufa/LUFA/Drivers/USB/Core/AVR8/PipeStream_AVR8.o
 .bss           0x00000000        0x0 hardware/usb/lufa/LUFA/Drivers/USB/Core/AVR8/PipeStream_AVR8.o
 .debug_info    0x00000000       0x56 hardware/usb/lufa/LUFA/Drivers/USB/Core/AVR8/PipeStream_AVR8.o
 .debug_abbrev  0x00000000       0x26 hardware/usb/lufa/LUFA/Drivers/USB/Core/AVR8/PipeStream_AVR8.o
 .debug_aranges
                0x00000000       0x18 hardware/usb/lufa/LUFA/Drivers/USB/Core/AVR8/PipeStream_AVR8.o
 .debug_line    0x00000000       0x1a hardware/usb/lufa/LUFA/Drivers/USB/Core/AVR8/PipeStream_AVR8.o
 .debug_str     0x00000000      0x19b hardware/usb/lufa/LUFA/Drivers/USB/Core/AVR8/PipeStream_AVR8.o
 .comment       0x00000000       0x31 hardware/usb/lufa/LUFA/Drivers/USB/Core/AVR8/PipeStream_AVR8.o
 .text          0x00000000        0x0 hardware/usb/lufa/LUFA/Drivers/USB/Core/AVR8/Pipe_AVR8.o
 .data          0x00000000        0x0 hardware/usb/lufa/LUFA/Drivers/USB/Core/AVR8/Pipe_AVR8.o
 .bss           0x00000000        0x0 hardware/usb/lufa/LUFA/Drivers/USB/Core/AVR8/Pipe_AVR8.o
 .debug_info    0x00000000       0x56 hardware/usb/lufa/LUFA/Drivers/USB/Core/AVR8/Pipe_AVR8.o
 .debug_abbrev  0x00000000       0x26 hardware/usb/lufa/LUFA/Drivers/USB/Core/AVR8/Pipe_AVR8.o
 .debug_aranges
                0x00000000       0x18 hardware/usb/lufa/LUFA/Drivers/USB/Core/AVR8/Pipe_AVR8.o
 .debug_line    0x00000000       0x1a hardware/usb/lufa/LUFA/Drivers/USB/Core/AVR8/Pipe_AVR8.o
 .debug_str     0x00000000      0x195 hardware/usb/lufa/LUFA/Drivers/USB/Core/AVR8/Pipe_AVR8.o
 .comment       0x00000000       0x31 hardware/usb/lufa/LUFA/Drivers/USB/Core/AVR8/Pipe_AVR8.o
 .text          0x00000000        0x0 hardware/usb/lufa/LUFA/Drivers/USB/Core/AVR8/Template/Template_Endpoint_Control_R.o
 .data          0x00000000        0x0 hardware/usb/lufa/LUFA/Drivers/USB/Core/AVR8/Template/Template_Endpoint_Control_R.o
 .bss           0x00000000        0x0 hardware/usb/lufa/LUFA/Drivers/USB/Core/AVR8/Template/Template_Endpoint_Control_R.o
 .debug_line    0x00000000        0x0 hardware/usb/lufa/LUFA/Drivers/USB/Core/AVR8/Template/Template_Endpoint_Control_R.o
 .debug_str     0x00000000      0x149 hardware/usb/lufa/LUFA/Drivers/USB/Core/AVR8/Template/Template_Endpoint_Control_R.o
 .comment       0x00000000       0x31 hardware/usb/lufa/LUFA/Drivers/USB/Core/AVR8/Template/Template_Endpoint_Control_R.o
 .text          0x00000000        0x0 hardware/usb/lufa/LUFA/Drivers/USB/Core/AVR8/Template/Template_Endpoint_Control_W.o
 .data          0x00000000        0x0 hardware/usb/lufa/LUFA/Drivers/USB/Core/AVR8/Template/Template_Endpoint_Control_W.o
 .bss           0x00000000        0x0 hardware/usb/lufa/LUFA/Drivers/USB/Core/AVR8/Template/Template_Endpoint_Control_W.o
 .debug_line    0x00000000        0x0 hardware/usb/lufa/LUFA/Drivers/USB/Core/AVR8/Template/Template_Endpoint_Control_W.o
 .debug_str     0x00000000      0x149 hardware/usb/lufa/LUFA/Drivers/USB/Core/AVR8/Template/Template_Endpoint_Control_W.o
 .comment       0x00000000       0x31 hardware/usb/lufa/LUFA/Drivers/USB/Core/AVR8/Template/Template_Endpoint_Control_W.o
 .text          0x00000000        0x0 hardware/usb/lufa/LUFA/Drivers/USB/Core/AVR8/Template/Template_Endpoint_RW.o
 .data          0x00000000        0x0 hardware/usb/lufa/LUFA/Drivers/USB/Core/AVR8/Template/Template_Endpoint_RW.o
 .bss           0x00000000        0x0 hardware/usb/lufa/LUFA/Drivers/USB/Core/AVR8/Template/Template_Endpoint_RW.o
 .debug_line    0x00000000        0x0 hardware/usb/lufa/LUFA/Drivers/USB/Core/AVR8/Template/Template_Endpoint_RW.o
 .debug_str     0x00000000      0x142 hardware/usb/lufa/LUFA/Drivers/USB/Core/AVR8/Template/Template_Endpoint_RW.o
 .comment       0x00000000       0x31 hardware/usb/lufa/LUFA/Drivers/USB/Core/AVR8/Template/Template_Endpoint_RW.o
 .text          0x00000000        0x0 hardware/usb/lufa/LUFA/Drivers/USB/Core/AVR8/Template/Template_Pipe_RW.o
 .data          0x00000000        0x0 hardware/usb/lufa/LUFA/Drivers/USB/Core/AVR8/Template/Template_Pipe_RW.o
 .bss           0x00000000        0x0 hardware/usb/lufa/LUFA/Drivers/USB/Core/AVR8/Template/Template_Pipe_RW.o
 .debug_line    0x00000000        0x0 hardware/usb/lufa/LUFA/Drivers/USB/Core/AVR8/Template/Template_Pipe_RW.o
 .debug_str     0x00000000      0x13e hardware/usb/lufa/LUFA/Drivers/USB/Core/AVR8/Template/Template_Pipe_RW.o
 .comment       0x00000000       0x31 hardware/usb/lufa/LUFA/Drivers/USB/Core/AVR8/Template/Template_Pipe_RW.o
 .text          0x00000000        0x0 hardware/usb/lufa/LUFA/Drivers/USB/Core/AVR8/USBController_AVR8.o
 .data          0x00000000        0x0 hardware/usb/lufa/LUFA/Drivers/USB/Core/AVR8/USBController_AVR8.o
 .bss           0x00000000        0x0 hardware/usb/lufa/LUFA/Drivers/USB/Core/AVR8/USBController_AVR8.o
 .text.USB_Disable
                0x00000000       0x34 hardware/usb/lufa/LUFA/Drivers/USB/Core/AVR8/USBController_AVR8.o
 .text          0x00000000        0x0 hardware/usb/lufa/LUFA/Drivers/USB/Core/AVR8/USBInterrupt_AVR8.o
 .data          0x00000000        0x0 hardware/usb/lufa/LUFA/Drivers/USB/Core/AVR8/USBInterrupt_AVR8.o
 .bss           0x00000000        0x0 hardware/usb/lufa/LUFA/Drivers/USB/Core/AVR8/USBInterrupt_AVR8.o
 .text          0x00000000        0x0 hardware/usb/lufa/LUFA/Drivers/USB/Core/ConfigDescriptors.o
 .data          0x00000000        0x0 hardware/usb/lufa/LUFA/Drivers/USB/Core/ConfigDescriptors.o
 .bss           0x00000000        0x0 hardware/usb/lufa/LUFA/Drivers/USB/Core/ConfigDescriptors.o
 .text.USB_GetNextDescriptorOfType
                0x00000000       0x4e hardware/usb/lufa/LUFA/Drivers/USB/Core/ConfigDescriptors.o
 .text.USB_GetNextDescriptorOfTypeBefore
                0x00000000       0x5c hardware/usb/lufa/LUFA/Drivers/USB/Core/ConfigDescriptors.o
 .text.USB_GetNextDescriptorOfTypeAfter
                0x00000000       0x34 hardware/usb/lufa/LUFA/Drivers/USB/Core/ConfigDescriptors.o
 .text.USB_GetNextDescriptorComp
                0x00000000       0x8e hardware/usb/lufa/LUFA/Drivers/USB/Core/ConfigDescriptors.o
 .debug_info    0x00000000      0x3f0 hardware/usb/lufa/LUFA/Drivers/USB/Core/ConfigDescriptors.o
 .debug_abbrev  0x00000000      0x19c hardware/usb/lufa/LUFA/Drivers/USB/Core/ConfigDescriptors.o
 .debug_loc     0x00000000      0x457 hardware/usb/lufa/LUFA/Drivers/USB/Core/ConfigDescriptors.o
 .debug_aranges
                0x00000000       0x38 hardware/usb/lufa/LUFA/Drivers/USB/Core/ConfigDescriptors.o
 .debug_ranges  0x00000000       0x28 hardware/usb/lufa/LUFA/Drivers/USB/Core/ConfigDescriptors.o
 .debug_line    0x00000000      0x23e hardware/usb/lufa/LUFA/Drivers/USB/Core/ConfigDescriptors.o
 .debug_str     0x00000000      0x3de hardware/usb/lufa/LUFA/Drivers/USB/Core/ConfigDescriptors.o
 .comment       0x00000000       0x31 hardware/usb/lufa/LUFA/Drivers/USB/Core/ConfigDescriptors.o
 .debug_frame   0x00000000       0xbc hardware/usb/lufa/LUFA/Drivers/USB/Core/ConfigDescriptors.o
 .text          0x00000000        0x0 hardware/usb/lufa/LUFA/Drivers/USB/Core/DeviceStandardReq.o
 .data          0x00000000        0x0 hardware/usb/lufa/LUFA/Drivers/USB/Core/DeviceStandardReq.o
 .bss           0x00000000        0x0 hardware/usb/lufa/LUFA/Drivers/USB/Core/DeviceStandardReq.o
 .text          0x00000000        0x0 hardware/usb/lufa/LUFA/Drivers/USB/Core/Events.o
 .data          0x00000000        0x0 hardware/usb/lufa/LUFA/Drivers/USB/Core/Events.o
 .bss           0x00000000        0x0 hardware/usb/lufa/LUFA/Drivers/USB/Core/Events.o
 .text          0x00000000        0x0 hardware/usb/lufa/LUFA/Drivers/USB/Core/HostStandardReq.o
 .data          0x00000000        0x0 hardware/usb/lufa/LUFA/Drivers/USB/Core/HostStandardReq.o
 .bss           0x00000000        0x0 hardware/usb/lufa/LUFA/Drivers/USB/Core/HostStandardReq.o
 .debug_info    0x00000000       0x56 hardware/usb/lufa/LUFA/Drivers/USB/Core/HostStandardReq.o
 .debug_abbrev  0x00000000       0x26 hardware/usb/lufa/LUFA/Drivers/USB/Core/HostStandardReq.o
 .debug_aranges
                0x00000000       0x18 hardware/usb/lufa/LUFA/Drivers/USB/Core/HostStandardReq.o
 .debug_line    0x00000000       0x1a hardware/usb/lufa/LUFA/Drivers/USB/Core/HostStandardReq.o
 .debug_str     0x00000000      0x196 hardware/usb/lufa/LUFA/Drivers/USB/Core/HostStandardReq.o
 .comment       0x00000000       0x31 hardware/usb/lufa/LUFA/Drivers/USB/Core/HostStandardReq.o
 .text          0x00000000        0x0 hardware/usb/lufa/LUFA/Drivers/USB/Core/USBTask.o
 .data          0x00000000        0x0 hardware/usb/lufa/LUFA/Drivers/USB/Core/USBTask.o
 .bss           0x00000000        0x0 hardware/usb/lufa/LUFA/Drivers/USB/Core/USBTask.o
 .text.USB_USBTask
                0x00000000       0x36 hardware/usb/lufa/LUFA/Drivers/USB/Core/USBTask.o
 .text          0x00000000        0x0 hardware/usb/midi/Descriptors.o
 .data          0x00000000        0x0 hardware/usb/midi/Descriptors.o
 .bss           0x00000000        0x0 hardware/usb/midi/Descriptors.o
 .text          0x00000000        0x0 hardware/usb/vserial/Descriptors.o
 .data          0x00000000        0x0 hardware/usb/vserial/Descriptors.o
 .bss           0x00000000        0x0 hardware/usb/vserial/Descriptors.o
 .debug_line    0x00000000        0x0 hardware/usb/vserial/Descriptors.o
 .debug_str     0x00000000      0x118 hardware/usb/vserial/Descriptors.o
 .comment       0x00000000       0x31 hardware/usb/vserial/Descriptors.o
 .text          0x00000000        0x0 init/Init.o
 .data          0x00000000        0x0 init/Init.o
 .bss           0x00000000        0x0 init/Init.o
 .text          0x00000000        0x0 interface/buttons/Buttons.o
 .data          0x00000000        0x0 interface/buttons/Buttons.o
 .bss           0x00000000        0x0 interface/buttons/Buttons.o
 .text          0x00000000        0x0 interface/buttons/Map.o
 .data          0x00000000        0x0 interface/buttons/Map.o
 .bss           0x00000000        0x0 interface/buttons/Map.o
 .text          0x00000000        0x0 interface/buttons/UpdateLogic.o
 .data          0x00000000        0x0 interface/buttons/UpdateLogic.o
 .bss           0x00000000        0x0 interface/buttons/UpdateLogic.o
 .text          0x00000000        0x0 interface/encoders/Encoders.o
 .data          0x00000000        0x0 interface/encoders/Encoders.o
 .bss           0x00000000        0x0 interface/encoders/Encoders.o
 .text._ZN8Encoders4initEv
                0x00000000        0x2 interface/encoders/Encoders.o
 .text          0x00000000        0x0 interface/lcd/Layout.o
 .data          0x00000000        0x0 interface/lcd/Layout.o
 .bss           0x00000000        0x0 interface/lcd/Layout.o
 .text          0x00000000        0x0 interface/lcd/menu/functions/MenuFunctions.o
 .data          0x00000000        0x0 interface/lcd/menu/functions/MenuFunctions.o
 .bss           0x00000000        0x0 interface/lcd/menu/functions/MenuFunctions.o
 .text._Z11padEditMode16functionArgument
                0x00000000       0x62 interface/lcd/menu/functions/MenuFunctions.o
 .text._Z18checkPressureLevel16functionArgument
                0x00000000        0x4 interface/lcd/menu/functions/MenuFunctions.o
 .text._Z18checkPressureCurve16functionArgument
                0x00000000        0x4 interface/lcd/menu/functions/MenuFunctions.o
 .text          0x00000000        0x0 interface/lcd/menu/layout/ServiceMenu.o
 .data          0x00000000        0x0 interface/lcd/menu/layout/ServiceMenu.o
 .bss           0x00000000        0x0 interface/lcd/menu/layout/ServiceMenu.o
 .text          0x00000000        0x0 interface/lcd/menu/layout/UserMenu.o
 .data          0x00000000        0x0 interface/lcd/menu/layout/UserMenu.o
 .bss           0x00000000        0x0 interface/lcd/menu/layout/UserMenu.o
 .text          0x00000000        0x0 interface/lcd/menu/Menu.o
 .data          0x00000000        0x0 interface/lcd/menu/Menu.o
 .bss           0x00000000        0x0 interface/lcd/menu/Menu.o
 .text          0x00000000        0x0 interface/lcd/MessageBuilder.o
 .data          0x00000000        0x0 interface/lcd/MessageBuilder.o
 .bss           0x00000000        0x0 interface/lcd/MessageBuilder.o
 .text._ZN3LCD13clearVelocityEv
                0x00000000       0x38 interface/lcd/MessageBuilder.o
 .text._ZN3LCD8clearPadEv
                0x00000000       0x38 interface/lcd/MessageBuilder.o
 .text._ZN3LCD16clearMIDIchannelEv
                0x00000000       0x38 interface/lcd/MessageBuilder.o
 .progmem.data._ZL23midiChannelClear_string
                0x00000000        0x5 interface/lcd/MessageBuilder.o
 .progmem.data._ZL15padClear_string
                0x00000000        0x5 interface/lcd/MessageBuilder.o
 .progmem.data._ZL20velocityClear_string
                0x00000000        0x5 interface/lcd/MessageBuilder.o
 .text          0x00000000        0x0 interface/lcd/UpdateLogic.o
 .data          0x00000000        0x0 interface/lcd/UpdateLogic.o
 .bss           0x00000000        0x0 interface/lcd/UpdateLogic.o
 .text          0x00000000        0x0 interface/leds/LEDs.o
 .data          0x00000000        0x0 interface/leds/LEDs.o
 .bss           0x00000000        0x0 interface/leds/LEDs.o
 .text._ZN4LEDsC2Ev
                0x00000000        0x2 interface/leds/LEDs.o
 .text._ZN4LEDs21getLEDnumberFromTonicE6note_t
                0x00000000        0xc interface/leds/LEDs.o
 .text._ZN4LEDs16getTonicLEDstateE6note_t
                0x00000000       0x14 interface/leds/LEDs.o
 .text          0x00000000        0x0 interface/pads/curves/Curves.o
 .data          0x00000000        0x0 interface/pads/curves/Curves.o
 .bss           0x00000000        0x0 interface/pads/curves/Curves.o
 .text          0x00000000        0x0 interface/pads/DataOutput.o
 .data          0x00000000        0x0 interface/pads/DataOutput.o
 .bss           0x00000000        0x0 interface/pads/DataOutput.o
 .text          0x00000000        0x0 interface/pads/DataProcessing.o
 .data          0x00000000        0x0 interface/pads/DataProcessing.o
 .bss           0x00000000        0x0 interface/pads/DataProcessing.o
 .text._ZN4Pads12addXYSamplesEii
                0x00000000       0x32 interface/pads/DataProcessing.o
 .text._ZN4Pads9xySampledEv
                0x00000000       0x12 interface/pads/DataProcessing.o
 .text._ZN4Pads18addPressureSamplesEi
                0x00000000       0x24 interface/pads/DataProcessing.o
 .text._ZN4Pads15pressureSampledEv
                0x00000000       0x12 interface/pads/DataProcessing.o
 .text          0x00000000        0x0 interface/pads/EditMode.o
 .data          0x00000000        0x0 interface/pads/EditMode.o
 .bss           0x00000000        0x0 interface/pads/EditMode.o
 .text          0x00000000        0x0 interface/pads/Getters.o
 .data          0x00000000        0x0 interface/pads/Getters.o
 .bss           0x00000000        0x0 interface/pads/Getters.o
 .text._ZN4Pads11padsPressedEv
                0x00000000       0x2e interface/pads/Getters.o
 .text          0x00000000        0x0 interface/pads/HardwareControl.o
 .data          0x00000000        0x0 interface/pads/HardwareControl.o
 .bss           0x00000000        0x0 interface/pads/HardwareControl.o
 .text          0x00000000        0x0 interface/pads/Pads.o
 .data          0x00000000        0x0 interface/pads/Pads.o
 .bss           0x00000000        0x0 interface/pads/Pads.o
 .text          0x00000000        0x0 interface/pads/Scaling.o
 .data          0x00000000        0x0 interface/pads/Scaling.o
 .bss           0x00000000        0x0 interface/pads/Scaling.o
 .text          0x00000000        0x0 interface/pads/Setters.o
 .data          0x00000000        0x0 interface/pads/Setters.o
 .bss           0x00000000        0x0 interface/pads/Setters.o
 .text._ZN4Pads13setPadPressedEhb
                0x00000000       0x5c interface/pads/Setters.o
 .text          0x00000000        0x0 sysex/SysEx.o
 .data          0x00000000        0x0 sysex/SysEx.o
 .bss           0x00000000        0x0 sysex/SysEx.o
 .text._ZN5SysEx10enableConfEv
                0x00000000        0x8 sysex/SysEx.o
 .text._ZN5SysEx14addMessageTypeEhh
                0x00000000       0x12 sysex/SysEx.o
 .text._ZN5SysEx17addMessageSubTypeEhhhhh
                0x00000000       0x46 sysex/SysEx.o
 .text._ZN5SysEx9checkWishEh
                0x00000000        0xa sysex/SysEx.o
 .text._ZN5SysEx11checkAmountEh
                0x00000000        0xa sysex/SysEx.o
 .text._ZN5SysEx12checkSectionEhh
                0x00000000       0x18 sysex/SysEx.o
 .text._ZN5SysEx16checkParameterIDEhhh
                0x00000000       0x26 sysex/SysEx.o
 .text._ZN5SysEx15sendComponentIDEhh
                0x00000000       0x42 sysex/SysEx.o
 .text._ZN5SysEx20configurationEnabledEv
                0x00000000        0x6 sysex/SysEx.o
 .text          0x00000000        0x0 version/Firmware.o
 .data          0x00000000        0x0 version/Firmware.o
 .bss           0x00000000        0x0 version/Firmware.o
 .text          0x00000000        0x0 vserial/Serial.o
 .data          0x00000000        0x0 vserial/Serial.o
 .bss           0x00000000        0x0 vserial/Serial.o
 .debug_line    0x00000000        0x0 vserial/Serial.o
 .debug_str     0x00000000      0x13b vserial/Serial.o
 .comment       0x00000000       0x31 vserial/Serial.o
 .text          0x00000000        0x0 Zvuk9.o
 .data          0x00000000        0x0 Zvuk9.o
 .bss           0x00000000        0x0 Zvuk9.o
 .text          0x00000000        0x0 midi/MIDI.o
 .data          0x00000000        0x0 midi/MIDI.o
 .bss           0x00000000        0x0 midi/MIDI.o
 .text._ZN4MIDIC2Ev
                0x00000000        0x2 midi/MIDI.o
 .text          0x00000000        0x0 Scales.o
 .data          0x00000000        0x0 Scales.o
 .bss           0x00000000        0x0 Scales.o
 .text          0x00000000        0x0 c:/program files (x86)/atmel/studio/7.0/toolchain/avr8/avr8-gnu-toolchain/bin/../lib/gcc/avr/4.9.2/../../../../avr/lib/avr51\libm.a(addsf3.o)
 .data          0x00000000        0x0 c:/program files (x86)/atmel/studio/7.0/toolchain/avr8/avr8-gnu-toolchain/bin/../lib/gcc/avr/4.9.2/../../../../avr/lib/avr51\libm.a(addsf3.o)
 .bss           0x00000000        0x0 c:/program files (x86)/atmel/studio/7.0/toolchain/avr8/avr8-gnu-toolchain/bin/../lib/gcc/avr/4.9.2/../../../../avr/lib/avr51\libm.a(addsf3.o)
 .text          0x00000000        0x0 c:/program files (x86)/atmel/studio/7.0/toolchain/avr8/avr8-gnu-toolchain/bin/../lib/gcc/avr/4.9.2/../../../../avr/lib/avr51\libm.a(addsf3x.o)
 .data          0x00000000        0x0 c:/program files (x86)/atmel/studio/7.0/toolchain/avr8/avr8-gnu-toolchain/bin/../lib/gcc/avr/4.9.2/../../../../avr/lib/avr51\libm.a(addsf3x.o)
 .bss           0x00000000        0x0 c:/program files (x86)/atmel/studio/7.0/toolchain/avr8/avr8-gnu-toolchain/bin/../lib/gcc/avr/4.9.2/../../../../avr/lib/avr51\libm.a(addsf3x.o)
 .text          0x00000000        0x0 c:/program files (x86)/atmel/studio/7.0/toolchain/avr8/avr8-gnu-toolchain/bin/../lib/gcc/avr/4.9.2/../../../../avr/lib/avr51\libm.a(cmpsf2.o)
 .data          0x00000000        0x0 c:/program files (x86)/atmel/studio/7.0/toolchain/avr8/avr8-gnu-toolchain/bin/../lib/gcc/avr/4.9.2/../../../../avr/lib/avr51\libm.a(cmpsf2.o)
 .bss           0x00000000        0x0 c:/program files (x86)/atmel/studio/7.0/toolchain/avr8/avr8-gnu-toolchain/bin/../lib/gcc/avr/4.9.2/../../../../avr/lib/avr51\libm.a(cmpsf2.o)
 .text          0x00000000        0x0 c:/program files (x86)/atmel/studio/7.0/toolchain/avr8/avr8-gnu-toolchain/bin/../lib/gcc/avr/4.9.2/../../../../avr/lib/avr51\libm.a(divsf3.o)
 .data          0x00000000        0x0 c:/program files (x86)/atmel/studio/7.0/toolchain/avr8/avr8-gnu-toolchain/bin/../lib/gcc/avr/4.9.2/../../../../avr/lib/avr51\libm.a(divsf3.o)
 .bss           0x00000000        0x0 c:/program files (x86)/atmel/studio/7.0/toolchain/avr8/avr8-gnu-toolchain/bin/../lib/gcc/avr/4.9.2/../../../../avr/lib/avr51\libm.a(divsf3.o)
 .text          0x00000000        0x0 c:/program files (x86)/atmel/studio/7.0/toolchain/avr8/avr8-gnu-toolchain/bin/../lib/gcc/avr/4.9.2/../../../../avr/lib/avr51\libm.a(divsf3x.o)
 .data          0x00000000        0x0 c:/program files (x86)/atmel/studio/7.0/toolchain/avr8/avr8-gnu-toolchain/bin/../lib/gcc/avr/4.9.2/../../../../avr/lib/avr51\libm.a(divsf3x.o)
 .bss           0x00000000        0x0 c:/program files (x86)/atmel/studio/7.0/toolchain/avr8/avr8-gnu-toolchain/bin/../lib/gcc/avr/4.9.2/../../../../avr/lib/avr51\libm.a(divsf3x.o)
 .text          0x00000000        0x0 c:/program files (x86)/atmel/studio/7.0/toolchain/avr8/avr8-gnu-toolchain/bin/../lib/gcc/avr/4.9.2/../../../../avr/lib/avr51\libm.a(fixunssfsi.o)
 .data          0x00000000        0x0 c:/program files (x86)/atmel/studio/7.0/toolchain/avr8/avr8-gnu-toolchain/bin/../lib/gcc/avr/4.9.2/../../../../avr/lib/avr51\libm.a(fixunssfsi.o)
 .bss           0x00000000        0x0 c:/program files (x86)/atmel/studio/7.0/toolchain/avr8/avr8-gnu-toolchain/bin/../lib/gcc/avr/4.9.2/../../../../avr/lib/avr51\libm.a(fixunssfsi.o)
 .text          0x00000000        0x0 c:/program files (x86)/atmel/studio/7.0/toolchain/avr8/avr8-gnu-toolchain/bin/../lib/gcc/avr/4.9.2/../../../../avr/lib/avr51\libm.a(floatsisf.o)
 .data          0x00000000        0x0 c:/program files (x86)/atmel/studio/7.0/toolchain/avr8/avr8-gnu-toolchain/bin/../lib/gcc/avr/4.9.2/../../../../avr/lib/avr51\libm.a(floatsisf.o)
 .bss           0x00000000        0x0 c:/program files (x86)/atmel/studio/7.0/toolchain/avr8/avr8-gnu-toolchain/bin/../lib/gcc/avr/4.9.2/../../../../avr/lib/avr51\libm.a(floatsisf.o)
 .text          0x00000000        0x0 c:/program files (x86)/atmel/studio/7.0/toolchain/avr8/avr8-gnu-toolchain/bin/../lib/gcc/avr/4.9.2/../../../../avr/lib/avr51\libm.a(fp_cmp.o)
 .data          0x00000000        0x0 c:/program files (x86)/atmel/studio/7.0/toolchain/avr8/avr8-gnu-toolchain/bin/../lib/gcc/avr/4.9.2/../../../../avr/lib/avr51\libm.a(fp_cmp.o)
 .bss           0x00000000        0x0 c:/program files (x86)/atmel/studio/7.0/toolchain/avr8/avr8-gnu-toolchain/bin/../lib/gcc/avr/4.9.2/../../../../avr/lib/avr51\libm.a(fp_cmp.o)
 .text          0x00000000        0x0 c:/program files (x86)/atmel/studio/7.0/toolchain/avr8/avr8-gnu-toolchain/bin/../lib/gcc/avr/4.9.2/../../../../avr/lib/avr51\libm.a(fp_inf.o)
 .data          0x00000000        0x0 c:/program files (x86)/atmel/studio/7.0/toolchain/avr8/avr8-gnu-toolchain/bin/../lib/gcc/avr/4.9.2/../../../../avr/lib/avr51\libm.a(fp_inf.o)
 .bss           0x00000000        0x0 c:/program files (x86)/atmel/studio/7.0/toolchain/avr8/avr8-gnu-toolchain/bin/../lib/gcc/avr/4.9.2/../../../../avr/lib/avr51\libm.a(fp_inf.o)
 .text          0x00000000        0x0 c:/program files (x86)/atmel/studio/7.0/toolchain/avr8/avr8-gnu-toolchain/bin/../lib/gcc/avr/4.9.2/../../../../avr/lib/avr51\libm.a(fp_nan.o)
 .data          0x00000000        0x0 c:/program files (x86)/atmel/studio/7.0/toolchain/avr8/avr8-gnu-toolchain/bin/../lib/gcc/avr/4.9.2/../../../../avr/lib/avr51\libm.a(fp_nan.o)
 .bss           0x00000000        0x0 c:/program files (x86)/atmel/studio/7.0/toolchain/avr8/avr8-gnu-toolchain/bin/../lib/gcc/avr/4.9.2/../../../../avr/lib/avr51\libm.a(fp_nan.o)
 .text          0x00000000        0x0 c:/program files (x86)/atmel/studio/7.0/toolchain/avr8/avr8-gnu-toolchain/bin/../lib/gcc/avr/4.9.2/../../../../avr/lib/avr51\libm.a(fp_pscA.o)
 .data          0x00000000        0x0 c:/program files (x86)/atmel/studio/7.0/toolchain/avr8/avr8-gnu-toolchain/bin/../lib/gcc/avr/4.9.2/../../../../avr/lib/avr51\libm.a(fp_pscA.o)
 .bss           0x00000000        0x0 c:/program files (x86)/atmel/studio/7.0/toolchain/avr8/avr8-gnu-toolchain/bin/../lib/gcc/avr/4.9.2/../../../../avr/lib/avr51\libm.a(fp_pscA.o)
 .text          0x00000000        0x0 c:/program files (x86)/atmel/studio/7.0/toolchain/avr8/avr8-gnu-toolchain/bin/../lib/gcc/avr/4.9.2/../../../../avr/lib/avr51\libm.a(fp_pscB.o)
 .data          0x00000000        0x0 c:/program files (x86)/atmel/studio/7.0/toolchain/avr8/avr8-gnu-toolchain/bin/../lib/gcc/avr/4.9.2/../../../../avr/lib/avr51\libm.a(fp_pscB.o)
 .bss           0x00000000        0x0 c:/program files (x86)/atmel/studio/7.0/toolchain/avr8/avr8-gnu-toolchain/bin/../lib/gcc/avr/4.9.2/../../../../avr/lib/avr51\libm.a(fp_pscB.o)
 .text          0x00000000        0x0 c:/program files (x86)/atmel/studio/7.0/toolchain/avr8/avr8-gnu-toolchain/bin/../lib/gcc/avr/4.9.2/../../../../avr/lib/avr51\libm.a(fp_round.o)
 .data          0x00000000        0x0 c:/program files (x86)/atmel/studio/7.0/toolchain/avr8/avr8-gnu-toolchain/bin/../lib/gcc/avr/4.9.2/../../../../avr/lib/avr51\libm.a(fp_round.o)
 .bss           0x00000000        0x0 c:/program files (x86)/atmel/studio/7.0/toolchain/avr8/avr8-gnu-toolchain/bin/../lib/gcc/avr/4.9.2/../../../../avr/lib/avr51\libm.a(fp_round.o)
 .text          0x00000000        0x0 c:/program files (x86)/atmel/studio/7.0/toolchain/avr8/avr8-gnu-toolchain/bin/../lib/gcc/avr/4.9.2/../../../../avr/lib/avr51\libm.a(fp_split3.o)
 .data          0x00000000        0x0 c:/program files (x86)/atmel/studio/7.0/toolchain/avr8/avr8-gnu-toolchain/bin/../lib/gcc/avr/4.9.2/../../../../avr/lib/avr51\libm.a(fp_split3.o)
 .bss           0x00000000        0x0 c:/program files (x86)/atmel/studio/7.0/toolchain/avr8/avr8-gnu-toolchain/bin/../lib/gcc/avr/4.9.2/../../../../avr/lib/avr51\libm.a(fp_split3.o)
 .text          0x00000000        0x0 c:/program files (x86)/atmel/studio/7.0/toolchain/avr8/avr8-gnu-toolchain/bin/../lib/gcc/avr/4.9.2/../../../../avr/lib/avr51\libm.a(fp_zero.o)
 .data          0x00000000        0x0 c:/program files (x86)/atmel/studio/7.0/toolchain/avr8/avr8-gnu-toolchain/bin/../lib/gcc/avr/4.9.2/../../../../avr/lib/avr51\libm.a(fp_zero.o)
 .bss           0x00000000        0x0 c:/program files (x86)/atmel/studio/7.0/toolchain/avr8/avr8-gnu-toolchain/bin/../lib/gcc/avr/4.9.2/../../../../avr/lib/avr51\libm.a(fp_zero.o)
 .text          0x00000000        0x0 c:/program files (x86)/atmel/studio/7.0/toolchain/avr8/avr8-gnu-toolchain/bin/../lib/gcc/avr/4.9.2/../../../../avr/lib/avr51\libm.a(log.o)
 .data          0x00000000        0x0 c:/program files (x86)/atmel/studio/7.0/toolchain/avr8/avr8-gnu-toolchain/bin/../lib/gcc/avr/4.9.2/../../../../avr/lib/avr51\libm.a(log.o)
 .bss           0x00000000        0x0 c:/program files (x86)/atmel/studio/7.0/toolchain/avr8/avr8-gnu-toolchain/bin/../lib/gcc/avr/4.9.2/../../../../avr/lib/avr51\libm.a(log.o)
 .text          0x00000000        0x0 c:/program files (x86)/atmel/studio/7.0/toolchain/avr8/avr8-gnu-toolchain/bin/../lib/gcc/avr/4.9.2/../../../../avr/lib/avr51\libm.a(mulsf3.o)
 .data          0x00000000        0x0 c:/program files (x86)/atmel/studio/7.0/toolchain/avr8/avr8-gnu-toolchain/bin/../lib/gcc/avr/4.9.2/../../../../avr/lib/avr51\libm.a(mulsf3.o)
 .bss           0x00000000        0x0 c:/program files (x86)/atmel/studio/7.0/toolchain/avr8/avr8-gnu-toolchain/bin/../lib/gcc/avr/4.9.2/../../../../avr/lib/avr51\libm.a(mulsf3.o)
 .text          0x00000000        0x0 c:/program files (x86)/atmel/studio/7.0/toolchain/avr8/avr8-gnu-toolchain/bin/../lib/gcc/avr/4.9.2/../../../../avr/lib/avr51\libm.a(mulsf3x.o)
 .data          0x00000000        0x0 c:/program files (x86)/atmel/studio/7.0/toolchain/avr8/avr8-gnu-toolchain/bin/../lib/gcc/avr/4.9.2/../../../../avr/lib/avr51\libm.a(mulsf3x.o)
 .bss           0x00000000        0x0 c:/program files (x86)/atmel/studio/7.0/toolchain/avr8/avr8-gnu-toolchain/bin/../lib/gcc/avr/4.9.2/../../../../avr/lib/avr51\libm.a(mulsf3x.o)
 .text          0x00000000        0x0 c:/program files (x86)/atmel/studio/7.0/toolchain/avr8/avr8-gnu-toolchain/bin/../lib/gcc/avr/4.9.2/../../../../avr/lib/avr51\libm.a(pow.o)
 .data          0x00000000        0x0 c:/program files (x86)/atmel/studio/7.0/toolchain/avr8/avr8-gnu-toolchain/bin/../lib/gcc/avr/4.9.2/../../../../avr/lib/avr51\libm.a(pow.o)
 .bss           0x00000000        0x0 c:/program files (x86)/atmel/studio/7.0/toolchain/avr8/avr8-gnu-toolchain/bin/../lib/gcc/avr/4.9.2/../../../../avr/lib/avr51\libm.a(pow.o)
 .text          0x00000000        0x0 c:/program files (x86)/atmel/studio/7.0/toolchain/avr8/avr8-gnu-toolchain/bin/../lib/gcc/avr/4.9.2/../../../../avr/lib/avr51\libm.a(round.o)
 .data          0x00000000        0x0 c:/program files (x86)/atmel/studio/7.0/toolchain/avr8/avr8-gnu-toolchain/bin/../lib/gcc/avr/4.9.2/../../../../avr/lib/avr51\libm.a(round.o)
 .bss           0x00000000        0x0 c:/program files (x86)/atmel/studio/7.0/toolchain/avr8/avr8-gnu-toolchain/bin/../lib/gcc/avr/4.9.2/../../../../avr/lib/avr51\libm.a(round.o)
 .text          0x00000000        0x0 c:/program files (x86)/atmel/studio/7.0/toolchain/avr8/avr8-gnu-toolchain/bin/../lib/gcc/avr/4.9.2/../../../../avr/lib/avr51\libm.a(exp.o)
 .data          0x00000000        0x0 c:/program files (x86)/atmel/studio/7.0/toolchain/avr8/avr8-gnu-toolchain/bin/../lib/gcc/avr/4.9.2/../../../../avr/lib/avr51\libm.a(exp.o)
 .bss           0x00000000        0x0 c:/program files (x86)/atmel/studio/7.0/toolchain/avr8/avr8-gnu-toolchain/bin/../lib/gcc/avr/4.9.2/../../../../avr/lib/avr51\libm.a(exp.o)
 .text          0x00000000        0x0 c:/program files (x86)/atmel/studio/7.0/toolchain/avr8/avr8-gnu-toolchain/bin/../lib/gcc/avr/4.9.2/../../../../avr/lib/avr51\libm.a(fp_mintl.o)
 .data          0x00000000        0x0 c:/program files (x86)/atmel/studio/7.0/toolchain/avr8/avr8-gnu-toolchain/bin/../lib/gcc/avr/4.9.2/../../../../avr/lib/avr51\libm.a(fp_mintl.o)
 .bss           0x00000000        0x0 c:/program files (x86)/atmel/studio/7.0/toolchain/avr8/avr8-gnu-toolchain/bin/../lib/gcc/avr/4.9.2/../../../../avr/lib/avr51\libm.a(fp_mintl.o)
 .text          0x00000000        0x0 c:/program files (x86)/atmel/studio/7.0/toolchain/avr8/avr8-gnu-toolchain/bin/../lib/gcc/avr/4.9.2/../../../../avr/lib/avr51\libm.a(fp_mpack.o)
 .data          0x00000000        0x0 c:/program files (x86)/atmel/studio/7.0/toolchain/avr8/avr8-gnu-toolchain/bin/../lib/gcc/avr/4.9.2/../../../../avr/lib/avr51\libm.a(fp_mpack.o)
 .bss           0x00000000        0x0 c:/program files (x86)/atmel/studio/7.0/toolchain/avr8/avr8-gnu-toolchain/bin/../lib/gcc/avr/4.9.2/../../../../avr/lib/avr51\libm.a(fp_mpack.o)
 .text          0x00000000        0x0 c:/program files (x86)/atmel/studio/7.0/toolchain/avr8/avr8-gnu-toolchain/bin/../lib/gcc/avr/4.9.2/../../../../avr/lib/avr51\libm.a(fp_powser.o)
 .data          0x00000000        0x0 c:/program files (x86)/atmel/studio/7.0/toolchain/avr8/avr8-gnu-toolchain/bin/../lib/gcc/avr/4.9.2/../../../../avr/lib/avr51\libm.a(fp_powser.o)
 .bss           0x00000000        0x0 c:/program files (x86)/atmel/studio/7.0/toolchain/avr8/avr8-gnu-toolchain/bin/../lib/gcc/avr/4.9.2/../../../../avr/lib/avr51\libm.a(fp_powser.o)
 .text          0x00000000        0x0 c:/program files (x86)/atmel/studio/7.0/toolchain/avr8/avr8-gnu-toolchain/bin/../lib/gcc/avr/4.9.2/../../../../avr/lib/avr51\libm.a(inverse.o)
 .data          0x00000000        0x0 c:/program files (x86)/atmel/studio/7.0/toolchain/avr8/avr8-gnu-toolchain/bin/../lib/gcc/avr/4.9.2/../../../../avr/lib/avr51\libm.a(inverse.o)
 .bss           0x00000000        0x0 c:/program files (x86)/atmel/studio/7.0/toolchain/avr8/avr8-gnu-toolchain/bin/../lib/gcc/avr/4.9.2/../../../../avr/lib/avr51\libm.a(inverse.o)
 .text          0x00000000        0x0 c:/program files (x86)/atmel/studio/7.0/toolchain/avr8/avr8-gnu-toolchain/bin/../lib/gcc/avr/4.9.2/../../../../avr/lib/avr51\libm.a(ldexp.o)
 .data          0x00000000        0x0 c:/program files (x86)/atmel/studio/7.0/toolchain/avr8/avr8-gnu-toolchain/bin/../lib/gcc/avr/4.9.2/../../../../avr/lib/avr51\libm.a(ldexp.o)
 .bss           0x00000000        0x0 c:/program files (x86)/atmel/studio/7.0/toolchain/avr8/avr8-gnu-toolchain/bin/../lib/gcc/avr/4.9.2/../../../../avr/lib/avr51\libm.a(ldexp.o)
 .text          0x00000000        0x0 c:/program files (x86)/atmel/studio/7.0/toolchain/avr8/avr8-gnu-toolchain/bin/../lib/gcc/avr/4.9.2/../../../../avr/lib/avr51\libm.a(modf.o)
 .data          0x00000000        0x0 c:/program files (x86)/atmel/studio/7.0/toolchain/avr8/avr8-gnu-toolchain/bin/../lib/gcc/avr/4.9.2/../../../../avr/lib/avr51\libm.a(modf.o)
 .bss           0x00000000        0x0 c:/program files (x86)/atmel/studio/7.0/toolchain/avr8/avr8-gnu-toolchain/bin/../lib/gcc/avr/4.9.2/../../../../avr/lib/avr51\libm.a(modf.o)
 .text          0x00000000        0x0 c:/program files (x86)/atmel/studio/7.0/toolchain/avr8/avr8-gnu-toolchain/bin/../lib/gcc/avr/4.9.2/avr51\libgcc.a(_mulsi3.o)
 .data          0x00000000        0x0 c:/program files (x86)/atmel/studio/7.0/toolchain/avr8/avr8-gnu-toolchain/bin/../lib/gcc/avr/4.9.2/avr51\libgcc.a(_mulsi3.o)
 .bss           0x00000000        0x0 c:/program files (x86)/atmel/studio/7.0/toolchain/avr8/avr8-gnu-toolchain/bin/../lib/gcc/avr/4.9.2/avr51\libgcc.a(_mulsi3.o)
 .text.libgcc.div
                0x00000000        0x0 c:/program files (x86)/atmel/studio/7.0/toolchain/avr8/avr8-gnu-toolchain/bin/../lib/gcc/avr/4.9.2/avr51\libgcc.a(_mulsi3.o)
 .text.libgcc   0x00000000        0x0 c:/program files (x86)/atmel/studio/7.0/toolchain/avr8/avr8-gnu-toolchain/bin/../lib/gcc/avr/4.9.2/avr51\libgcc.a(_mulsi3.o)
 .text.libgcc.prologue
                0x00000000        0x0 c:/program files (x86)/atmel/studio/7.0/toolchain/avr8/avr8-gnu-toolchain/bin/../lib/gcc/avr/4.9.2/avr51\libgcc.a(_mulsi3.o)
 .text.libgcc.builtins
                0x00000000        0x0 c:/program files (x86)/atmel/studio/7.0/toolchain/avr8/avr8-gnu-toolchain/bin/../lib/gcc/avr/4.9.2/avr51\libgcc.a(_mulsi3.o)
 .text.libgcc.fmul
                0x00000000        0x0 c:/program files (x86)/atmel/studio/7.0/toolchain/avr8/avr8-gnu-toolchain/bin/../lib/gcc/avr/4.9.2/avr51\libgcc.a(_mulsi3.o)
 .text.libgcc.fixed
                0x00000000        0x0 c:/program files (x86)/atmel/studio/7.0/toolchain/avr8/avr8-gnu-toolchain/bin/../lib/gcc/avr/4.9.2/avr51\libgcc.a(_mulsi3.o)
 .text          0x00000000        0x0 c:/program files (x86)/atmel/studio/7.0/toolchain/avr8/avr8-gnu-toolchain/bin/../lib/gcc/avr/4.9.2/avr51\libgcc.a(_udivmodsi4.o)
 .data          0x00000000        0x0 c:/program files (x86)/atmel/studio/7.0/toolchain/avr8/avr8-gnu-toolchain/bin/../lib/gcc/avr/4.9.2/avr51\libgcc.a(_udivmodsi4.o)
 .bss           0x00000000        0x0 c:/program files (x86)/atmel/studio/7.0/toolchain/avr8/avr8-gnu-toolchain/bin/../lib/gcc/avr/4.9.2/avr51\libgcc.a(_udivmodsi4.o)
 .text.libgcc.mul
                0x00000000        0x0 c:/program files (x86)/atmel/studio/7.0/toolchain/avr8/avr8-gnu-toolchain/bin/../lib/gcc/avr/4.9.2/avr51\libgcc.a(_udivmodsi4.o)
 .text.libgcc   0x00000000        0x0 c:/program files (x86)/atmel/studio/7.0/toolchain/avr8/avr8-gnu-toolchain/bin/../lib/gcc/avr/4.9.2/avr51\libgcc.a(_udivmodsi4.o)
 .text.libgcc.prologue
                0x00000000        0x0 c:/program files (x86)/atmel/studio/7.0/toolchain/avr8/avr8-gnu-toolchain/bin/../lib/gcc/avr/4.9.2/avr51\libgcc.a(_udivmodsi4.o)
 .text.libgcc.builtins
                0x00000000        0x0 c:/program files (x86)/atmel/studio/7.0/toolchain/avr8/avr8-gnu-toolchain/bin/../lib/gcc/avr/4.9.2/avr51\libgcc.a(_udivmodsi4.o)
 .text.libgcc.fmul
                0x00000000        0x0 c:/program files (x86)/atmel/studio/7.0/toolchain/avr8/avr8-gnu-toolchain/bin/../lib/gcc/avr/4.9.2/avr51\libgcc.a(_udivmodsi4.o)
 .text.libgcc.fixed
                0x00000000        0x0 c:/program files (x86)/atmel/studio/7.0/toolchain/avr8/avr8-gnu-toolchain/bin/../lib/gcc/avr/4.9.2/avr51\libgcc.a(_udivmodsi4.o)
 .text          0x00000000        0x0 c:/program files (x86)/atmel/studio/7.0/toolchain/avr8/avr8-gnu-toolchain/bin/../lib/gcc/avr/4.9.2/avr51\libgcc.a(_divmodsi4.o)
 .data          0x00000000        0x0 c:/program files (x86)/atmel/studio/7.0/toolchain/avr8/avr8-gnu-toolchain/bin/../lib/gcc/avr/4.9.2/avr51\libgcc.a(_divmodsi4.o)
 .bss           0x00000000        0x0 c:/program files (x86)/atmel/studio/7.0/toolchain/avr8/avr8-gnu-toolchain/bin/../lib/gcc/avr/4.9.2/avr51\libgcc.a(_divmodsi4.o)
 .text.libgcc.mul
                0x00000000        0x0 c:/program files (x86)/atmel/studio/7.0/toolchain/avr8/avr8-gnu-toolchain/bin/../lib/gcc/avr/4.9.2/avr51\libgcc.a(_divmodsi4.o)
 .text.libgcc   0x00000000        0x0 c:/program files (x86)/atmel/studio/7.0/toolchain/avr8/avr8-gnu-toolchain/bin/../lib/gcc/avr/4.9.2/avr51\libgcc.a(_divmodsi4.o)
 .text.libgcc.prologue
                0x00000000        0x0 c:/program files (x86)/atmel/studio/7.0/toolchain/avr8/avr8-gnu-toolchain/bin/../lib/gcc/avr/4.9.2/avr51\libgcc.a(_divmodsi4.o)
 .text.libgcc.builtins
                0x00000000        0x0 c:/program files (x86)/atmel/studio/7.0/toolchain/avr8/avr8-gnu-toolchain/bin/../lib/gcc/avr/4.9.2/avr51\libgcc.a(_divmodsi4.o)
 .text.libgcc.fmul
                0x00000000        0x0 c:/program files (x86)/atmel/studio/7.0/toolchain/avr8/avr8-gnu-toolchain/bin/../lib/gcc/avr/4.9.2/avr51\libgcc.a(_divmodsi4.o)
 .text.libgcc.fixed
                0x00000000        0x0 c:/program files (x86)/atmel/studio/7.0/toolchain/avr8/avr8-gnu-toolchain/bin/../lib/gcc/avr/4.9.2/avr51\libgcc.a(_divmodsi4.o)
 .text          0x00000000        0x0 c:/program files (x86)/atmel/studio/7.0/toolchain/avr8/avr8-gnu-toolchain/bin/../lib/gcc/avr/4.9.2/avr51\libgcc.a(_negsi2.o)
 .data          0x00000000        0x0 c:/program files (x86)/atmel/studio/7.0/toolchain/avr8/avr8-gnu-toolchain/bin/../lib/gcc/avr/4.9.2/avr51\libgcc.a(_negsi2.o)
 .bss           0x00000000        0x0 c:/program files (x86)/atmel/studio/7.0/toolchain/avr8/avr8-gnu-toolchain/bin/../lib/gcc/avr/4.9.2/avr51\libgcc.a(_negsi2.o)
 .text.libgcc.mul
                0x00000000        0x0 c:/program files (x86)/atmel/studio/7.0/toolchain/avr8/avr8-gnu-toolchain/bin/../lib/gcc/avr/4.9.2/avr51\libgcc.a(_negsi2.o)
 .text.libgcc   0x00000000        0x0 c:/program files (x86)/atmel/studio/7.0/toolchain/avr8/avr8-gnu-toolchain/bin/../lib/gcc/avr/4.9.2/avr51\libgcc.a(_negsi2.o)
 .text.libgcc.prologue
                0x00000000        0x0 c:/program files (x86)/atmel/studio/7.0/toolchain/avr8/avr8-gnu-toolchain/bin/../lib/gcc/avr/4.9.2/avr51\libgcc.a(_negsi2.o)
 .text.libgcc.builtins
                0x00000000        0x0 c:/program files (x86)/atmel/studio/7.0/toolchain/avr8/avr8-gnu-toolchain/bin/../lib/gcc/avr/4.9.2/avr51\libgcc.a(_negsi2.o)
 .text.libgcc.fmul
                0x00000000        0x0 c:/program files (x86)/atmel/studio/7.0/toolchain/avr8/avr8-gnu-toolchain/bin/../lib/gcc/avr/4.9.2/avr51\libgcc.a(_negsi2.o)
 .text.libgcc.fixed
                0x00000000        0x0 c:/program files (x86)/atmel/studio/7.0/toolchain/avr8/avr8-gnu-toolchain/bin/../lib/gcc/avr/4.9.2/avr51\libgcc.a(_negsi2.o)
 .text          0x00000000        0x0 c:/program files (x86)/atmel/studio/7.0/toolchain/avr8/avr8-gnu-toolchain/bin/../lib/gcc/avr/4.9.2/avr51\libgcc.a(_exit.o)
 .data          0x00000000        0x0 c:/program files (x86)/atmel/studio/7.0/toolchain/avr8/avr8-gnu-toolchain/bin/../lib/gcc/avr/4.9.2/avr51\libgcc.a(_exit.o)
 .bss           0x00000000        0x0 c:/program files (x86)/atmel/studio/7.0/toolchain/avr8/avr8-gnu-toolchain/bin/../lib/gcc/avr/4.9.2/avr51\libgcc.a(_exit.o)
 .text.libgcc.mul
                0x00000000        0x0 c:/program files (x86)/atmel/studio/7.0/toolchain/avr8/avr8-gnu-toolchain/bin/../lib/gcc/avr/4.9.2/avr51\libgcc.a(_exit.o)
 .text.libgcc.div
                0x00000000        0x0 c:/program files (x86)/atmel/studio/7.0/toolchain/avr8/avr8-gnu-toolchain/bin/../lib/gcc/avr/4.9.2/avr51\libgcc.a(_exit.o)
 .text.libgcc   0x00000000        0x0 c:/program files (x86)/atmel/studio/7.0/toolchain/avr8/avr8-gnu-toolchain/bin/../lib/gcc/avr/4.9.2/avr51\libgcc.a(_exit.o)
 .text.libgcc.prologue
                0x00000000        0x0 c:/program files (x86)/atmel/studio/7.0/toolchain/avr8/avr8-gnu-toolchain/bin/../lib/gcc/avr/4.9.2/avr51\libgcc.a(_exit.o)
 .text.libgcc.builtins
                0x00000000        0x0 c:/program files (x86)/atmel/studio/7.0/toolchain/avr8/avr8-gnu-toolchain/bin/../lib/gcc/avr/4.9.2/avr51\libgcc.a(_exit.o)
 .text.libgcc.fmul
                0x00000000        0x0 c:/program files (x86)/atmel/studio/7.0/toolchain/avr8/avr8-gnu-toolchain/bin/../lib/gcc/avr/4.9.2/avr51\libgcc.a(_exit.o)
 .text.libgcc.fixed
                0x00000000        0x0 c:/program files (x86)/atmel/studio/7.0/toolchain/avr8/avr8-gnu-toolchain/bin/../lib/gcc/avr/4.9.2/avr51\libgcc.a(_exit.o)
 .text          0x00000000        0x0 c:/program files (x86)/atmel/studio/7.0/toolchain/avr8/avr8-gnu-toolchain/bin/../lib/gcc/avr/4.9.2/avr51\libgcc.a(_tablejump2.o)
 .data          0x00000000        0x0 c:/program files (x86)/atmel/studio/7.0/toolchain/avr8/avr8-gnu-toolchain/bin/../lib/gcc/avr/4.9.2/avr51\libgcc.a(_tablejump2.o)
 .bss           0x00000000        0x0 c:/program files (x86)/atmel/studio/7.0/toolchain/avr8/avr8-gnu-toolchain/bin/../lib/gcc/avr/4.9.2/avr51\libgcc.a(_tablejump2.o)
 .text.libgcc.mul
                0x00000000        0x0 c:/program files (x86)/atmel/studio/7.0/toolchain/avr8/avr8-gnu-toolchain/bin/../lib/gcc/avr/4.9.2/avr51\libgcc.a(_tablejump2.o)
 .text.libgcc.div
                0x00000000        0x0 c:/program files (x86)/atmel/studio/7.0/toolchain/avr8/avr8-gnu-toolchain/bin/../lib/gcc/avr/4.9.2/avr51\libgcc.a(_tablejump2.o)
 .text.libgcc.prologue
                0x00000000        0x0 c:/program files (x86)/atmel/studio/7.0/toolchain/avr8/avr8-gnu-toolchain/bin/../lib/gcc/avr/4.9.2/avr51\libgcc.a(_tablejump2.o)
 .text.libgcc.builtins
                0x00000000        0x0 c:/program files (x86)/atmel/studio/7.0/toolchain/avr8/avr8-gnu-toolchain/bin/../lib/gcc/avr/4.9.2/avr51\libgcc.a(_tablejump2.o)
 .text.libgcc.fmul
                0x00000000        0x0 c:/program files (x86)/atmel/studio/7.0/toolchain/avr8/avr8-gnu-toolchain/bin/../lib/gcc/avr/4.9.2/avr51\libgcc.a(_tablejump2.o)
 .text.libgcc.fixed
                0x00000000        0x0 c:/program files (x86)/atmel/studio/7.0/toolchain/avr8/avr8-gnu-toolchain/bin/../lib/gcc/avr/4.9.2/avr51\libgcc.a(_tablejump2.o)
 .text          0x00000000        0x0 c:/program files (x86)/atmel/studio/7.0/toolchain/avr8/avr8-gnu-toolchain/bin/../lib/gcc/avr/4.9.2/avr51\libgcc.a(_copy_data.o)
 .data          0x00000000        0x0 c:/program files (x86)/atmel/studio/7.0/toolchain/avr8/avr8-gnu-toolchain/bin/../lib/gcc/avr/4.9.2/avr51\libgcc.a(_copy_data.o)
 .bss           0x00000000        0x0 c:/program files (x86)/atmel/studio/7.0/toolchain/avr8/avr8-gnu-toolchain/bin/../lib/gcc/avr/4.9.2/avr51\libgcc.a(_copy_data.o)
 .text.libgcc.mul
                0x00000000        0x0 c:/program files (x86)/atmel/studio/7.0/toolchain/avr8/avr8-gnu-toolchain/bin/../lib/gcc/avr/4.9.2/avr51\libgcc.a(_copy_data.o)
 .text.libgcc.div
                0x00000000        0x0 c:/program files (x86)/atmel/studio/7.0/toolchain/avr8/avr8-gnu-toolchain/bin/../lib/gcc/avr/4.9.2/avr51\libgcc.a(_copy_data.o)
 .text.libgcc   0x00000000        0x0 c:/program files (x86)/atmel/studio/7.0/toolchain/avr8/avr8-gnu-toolchain/bin/../lib/gcc/avr/4.9.2/avr51\libgcc.a(_copy_data.o)
 .text.libgcc.prologue
                0x00000000        0x0 c:/program files (x86)/atmel/studio/7.0/toolchain/avr8/avr8-gnu-toolchain/bin/../lib/gcc/avr/4.9.2/avr51\libgcc.a(_copy_data.o)
 .text.libgcc.builtins
                0x00000000        0x0 c:/program files (x86)/atmel/studio/7.0/toolchain/avr8/avr8-gnu-toolchain/bin/../lib/gcc/avr/4.9.2/avr51\libgcc.a(_copy_data.o)
 .text.libgcc.fmul
                0x00000000        0x0 c:/program files (x86)/atmel/studio/7.0/toolchain/avr8/avr8-gnu-toolchain/bin/../lib/gcc/avr/4.9.2/avr51\libgcc.a(_copy_data.o)
 .text.libgcc.fixed
                0x00000000        0x0 c:/program files (x86)/atmel/studio/7.0/toolchain/avr8/avr8-gnu-toolchain/bin/../lib/gcc/avr/4.9.2/avr51\libgcc.a(_copy_data.o)
 .text          0x00000000        0x0 c:/program files (x86)/atmel/studio/7.0/toolchain/avr8/avr8-gnu-toolchain/bin/../lib/gcc/avr/4.9.2/avr51\libgcc.a(_clear_bss.o)
 .data          0x00000000        0x0 c:/program files (x86)/atmel/studio/7.0/toolchain/avr8/avr8-gnu-toolchain/bin/../lib/gcc/avr/4.9.2/avr51\libgcc.a(_clear_bss.o)
 .bss           0x00000000        0x0 c:/program files (x86)/atmel/studio/7.0/toolchain/avr8/avr8-gnu-toolchain/bin/../lib/gcc/avr/4.9.2/avr51\libgcc.a(_clear_bss.o)
 .text.libgcc.mul
                0x00000000        0x0 c:/program files (x86)/atmel/studio/7.0/toolchain/avr8/avr8-gnu-toolchain/bin/../lib/gcc/avr/4.9.2/avr51\libgcc.a(_clear_bss.o)
 .text.libgcc.div
                0x00000000        0x0 c:/program files (x86)/atmel/studio/7.0/toolchain/avr8/avr8-gnu-toolchain/bin/../lib/gcc/avr/4.9.2/avr51\libgcc.a(_clear_bss.o)
 .text.libgcc   0x00000000        0x0 c:/program files (x86)/atmel/studio/7.0/toolchain/avr8/avr8-gnu-toolchain/bin/../lib/gcc/avr/4.9.2/avr51\libgcc.a(_clear_bss.o)
 .text.libgcc.prologue
                0x00000000        0x0 c:/program files (x86)/atmel/studio/7.0/toolchain/avr8/avr8-gnu-toolchain/bin/../lib/gcc/avr/4.9.2/avr51\libgcc.a(_clear_bss.o)
 .text.libgcc.builtins
                0x00000000        0x0 c:/program files (x86)/atmel/studio/7.0/toolchain/avr8/avr8-gnu-toolchain/bin/../lib/gcc/avr/4.9.2/avr51\libgcc.a(_clear_bss.o)
 .text.libgcc.fmul
                0x00000000        0x0 c:/program files (x86)/atmel/studio/7.0/toolchain/avr8/avr8-gnu-toolchain/bin/../lib/gcc/avr/4.9.2/avr51\libgcc.a(_clear_bss.o)
 .text.libgcc.fixed
                0x00000000        0x0 c:/program files (x86)/atmel/studio/7.0/toolchain/avr8/avr8-gnu-toolchain/bin/../lib/gcc/avr/4.9.2/avr51\libgcc.a(_clear_bss.o)
 .text          0x00000000        0x0 c:/program files (x86)/atmel/studio/7.0/toolchain/avr8/avr8-gnu-toolchain/bin/../lib/gcc/avr/4.9.2/avr51\libgcc.a(_ctors.o)
 .data          0x00000000        0x0 c:/program files (x86)/atmel/studio/7.0/toolchain/avr8/avr8-gnu-toolchain/bin/../lib/gcc/avr/4.9.2/avr51\libgcc.a(_ctors.o)
 .bss           0x00000000        0x0 c:/program files (x86)/atmel/studio/7.0/toolchain/avr8/avr8-gnu-toolchain/bin/../lib/gcc/avr/4.9.2/avr51\libgcc.a(_ctors.o)
 .text.libgcc.mul
                0x00000000        0x0 c:/program files (x86)/atmel/studio/7.0/toolchain/avr8/avr8-gnu-toolchain/bin/../lib/gcc/avr/4.9.2/avr51\libgcc.a(_ctors.o)
 .text.libgcc.div
                0x00000000        0x0 c:/program files (x86)/atmel/studio/7.0/toolchain/avr8/avr8-gnu-toolchain/bin/../lib/gcc/avr/4.9.2/avr51\libgcc.a(_ctors.o)
 .text.libgcc   0x00000000        0x0 c:/program files (x86)/atmel/studio/7.0/toolchain/avr8/avr8-gnu-toolchain/bin/../lib/gcc/avr/4.9.2/avr51\libgcc.a(_ctors.o)
 .text.libgcc.prologue
                0x00000000        0x0 c:/program files (x86)/atmel/studio/7.0/toolchain/avr8/avr8-gnu-toolchain/bin/../lib/gcc/avr/4.9.2/avr51\libgcc.a(_ctors.o)
 .text.libgcc.builtins
                0x00000000        0x0 c:/program files (x86)/atmel/studio/7.0/toolchain/avr8/avr8-gnu-toolchain/bin/../lib/gcc/avr/4.9.2/avr51\libgcc.a(_ctors.o)
 .text.libgcc.fmul
                0x00000000        0x0 c:/program files (x86)/atmel/studio/7.0/toolchain/avr8/avr8-gnu-toolchain/bin/../lib/gcc/avr/4.9.2/avr51\libgcc.a(_ctors.o)
 .text.libgcc.fixed
                0x00000000        0x0 c:/program files (x86)/atmel/studio/7.0/toolchain/avr8/avr8-gnu-toolchain/bin/../lib/gcc/avr/4.9.2/avr51\libgcc.a(_ctors.o)
 .text          0x00000000        0x0 c:/program files (x86)/atmel/studio/7.0/toolchain/avr8/avr8-gnu-toolchain/bin/../lib/gcc/avr/4.9.2/avr51\libgcc.a(_umulhisi3.o)
 .data          0x00000000        0x0 c:/program files (x86)/atmel/studio/7.0/toolchain/avr8/avr8-gnu-toolchain/bin/../lib/gcc/avr/4.9.2/avr51\libgcc.a(_umulhisi3.o)
 .bss           0x00000000        0x0 c:/program files (x86)/atmel/studio/7.0/toolchain/avr8/avr8-gnu-toolchain/bin/../lib/gcc/avr/4.9.2/avr51\libgcc.a(_umulhisi3.o)
 .text.libgcc.div
                0x00000000        0x0 c:/program files (x86)/atmel/studio/7.0/toolchain/avr8/avr8-gnu-toolchain/bin/../lib/gcc/avr/4.9.2/avr51\libgcc.a(_umulhisi3.o)
 .text.libgcc   0x00000000        0x0 c:/program files (x86)/atmel/studio/7.0/toolchain/avr8/avr8-gnu-toolchain/bin/../lib/gcc/avr/4.9.2/avr51\libgcc.a(_umulhisi3.o)
 .text.libgcc.prologue
                0x00000000        0x0 c:/program files (x86)/atmel/studio/7.0/toolchain/avr8/avr8-gnu-toolchain/bin/../lib/gcc/avr/4.9.2/avr51\libgcc.a(_umulhisi3.o)
 .text.libgcc.builtins
                0x00000000        0x0 c:/program files (x86)/atmel/studio/7.0/toolchain/avr8/avr8-gnu-toolchain/bin/../lib/gcc/avr/4.9.2/avr51\libgcc.a(_umulhisi3.o)
 .text.libgcc.fmul
                0x00000000        0x0 c:/program files (x86)/atmel/studio/7.0/toolchain/avr8/avr8-gnu-toolchain/bin/../lib/gcc/avr/4.9.2/avr51\libgcc.a(_umulhisi3.o)
 .text.libgcc.fixed
                0x00000000        0x0 c:/program files (x86)/atmel/studio/7.0/toolchain/avr8/avr8-gnu-toolchain/bin/../lib/gcc/avr/4.9.2/avr51\libgcc.a(_umulhisi3.o)
 .text          0x00000000        0x0 c:/program files (x86)/atmel/studio/7.0/toolchain/avr8/avr8-gnu-toolchain/bin/../lib/gcc/avr/4.9.2/avr51\libgcc.a(_muluhisi3.o)
 .data          0x00000000        0x0 c:/program files (x86)/atmel/studio/7.0/toolchain/avr8/avr8-gnu-toolchain/bin/../lib/gcc/avr/4.9.2/avr51\libgcc.a(_muluhisi3.o)
 .bss           0x00000000        0x0 c:/program files (x86)/atmel/studio/7.0/toolchain/avr8/avr8-gnu-toolchain/bin/../lib/gcc/avr/4.9.2/avr51\libgcc.a(_muluhisi3.o)
 .text.libgcc.div
                0x00000000        0x0 c:/program files (x86)/atmel/studio/7.0/toolchain/avr8/avr8-gnu-toolchain/bin/../lib/gcc/avr/4.9.2/avr51\libgcc.a(_muluhisi3.o)
 .text.libgcc   0x00000000        0x0 c:/program files (x86)/atmel/studio/7.0/toolchain/avr8/avr8-gnu-toolchain/bin/../lib/gcc/avr/4.9.2/avr51\libgcc.a(_muluhisi3.o)
 .text.libgcc.prologue
                0x00000000        0x0 c:/program files (x86)/atmel/studio/7.0/toolchain/avr8/avr8-gnu-toolchain/bin/../lib/gcc/avr/4.9.2/avr51\libgcc.a(_muluhisi3.o)
 .text.libgcc.builtins
                0x00000000        0x0 c:/program files (x86)/atmel/studio/7.0/toolchain/avr8/avr8-gnu-toolchain/bin/../lib/gcc/avr/4.9.2/avr51\libgcc.a(_muluhisi3.o)
 .text.libgcc.fmul
                0x00000000        0x0 c:/program files (x86)/atmel/studio/7.0/toolchain/avr8/avr8-gnu-toolchain/bin/../lib/gcc/avr/4.9.2/avr51\libgcc.a(_muluhisi3.o)
 .text.libgcc.fixed
                0x00000000        0x0 c:/program files (x86)/atmel/studio/7.0/toolchain/avr8/avr8-gnu-toolchain/bin/../lib/gcc/avr/4.9.2/avr51\libgcc.a(_muluhisi3.o)
 .text          0x00000000        0x0 c:/program files (x86)/atmel/studio/7.0/toolchain/avr8/avr8-gnu-toolchain/bin/../lib/gcc/avr/4.9.2/../../../../avr/lib/avr51\libc.a(memcpy_P.o)
 .data          0x00000000        0x0 c:/program files (x86)/atmel/studio/7.0/toolchain/avr8/avr8-gnu-toolchain/bin/../lib/gcc/avr/4.9.2/../../../../avr/lib/avr51\libc.a(memcpy_P.o)
 .bss           0x00000000        0x0 c:/program files (x86)/atmel/studio/7.0/toolchain/avr8/avr8-gnu-toolchain/bin/../lib/gcc/avr/4.9.2/../../../../avr/lib/avr51\libc.a(memcpy_P.o)
 .text          0x00000000        0x0 c:/program files (x86)/atmel/studio/7.0/toolchain/avr8/avr8-gnu-toolchain/bin/../lib/gcc/avr/4.9.2/../../../../avr/lib/avr51\libc.a(strcpy_P.o)
 .data          0x00000000        0x0 c:/program files (x86)/atmel/studio/7.0/toolchain/avr8/avr8-gnu-toolchain/bin/../lib/gcc/avr/4.9.2/../../../../avr/lib/avr51\libc.a(strcpy_P.o)
 .bss           0x00000000        0x0 c:/program files (x86)/atmel/studio/7.0/toolchain/avr8/avr8-gnu-toolchain/bin/../lib/gcc/avr/4.9.2/../../../../avr/lib/avr51\libc.a(strcpy_P.o)
 .text          0x00000000        0x0 c:/program files (x86)/atmel/studio/7.0/toolchain/avr8/avr8-gnu-toolchain/bin/../lib/gcc/avr/4.9.2/../../../../avr/lib/avr51\libc.a(strlen_P.o)
 .data          0x00000000        0x0 c:/program files (x86)/atmel/studio/7.0/toolchain/avr8/avr8-gnu-toolchain/bin/../lib/gcc/avr/4.9.2/../../../../avr/lib/avr51\libc.a(strlen_P.o)
 .bss           0x00000000        0x0 c:/program files (x86)/atmel/studio/7.0/toolchain/avr8/avr8-gnu-toolchain/bin/../lib/gcc/avr/4.9.2/../../../../avr/lib/avr51\libc.a(strlen_P.o)
 .text          0x00000000        0x0 c:/program files (x86)/atmel/studio/7.0/toolchain/avr8/avr8-gnu-toolchain/bin/../lib/gcc/avr/4.9.2/../../../../avr/lib/avr51\libc.a(memcmp.o)
 .data          0x00000000        0x0 c:/program files (x86)/atmel/studio/7.0/toolchain/avr8/avr8-gnu-toolchain/bin/../lib/gcc/avr/4.9.2/../../../../avr/lib/avr51\libc.a(memcmp.o)
 .bss           0x00000000        0x0 c:/program files (x86)/atmel/studio/7.0/toolchain/avr8/avr8-gnu-toolchain/bin/../lib/gcc/avr/4.9.2/../../../../avr/lib/avr51\libc.a(memcmp.o)
 .text.avr-libc
                0x00000000       0x1a c:/program files (x86)/atmel/studio/7.0/toolchain/avr8/avr8-gnu-toolchain/bin/../lib/gcc/avr/4.9.2/../../../../avr/lib/avr51\libc.a(memcmp.o)
 .text          0x00000000        0x0 c:/program files (x86)/atmel/studio/7.0/toolchain/avr8/avr8-gnu-toolchain/bin/../lib/gcc/avr/4.9.2/../../../../avr/lib/avr51\libc.a(memcpy.o)
 .data          0x00000000        0x0 c:/program files (x86)/atmel/studio/7.0/toolchain/avr8/avr8-gnu-toolchain/bin/../lib/gcc/avr/4.9.2/../../../../avr/lib/avr51\libc.a(memcpy.o)
 .bss           0x00000000        0x0 c:/program files (x86)/atmel/studio/7.0/toolchain/avr8/avr8-gnu-toolchain/bin/../lib/gcc/avr/4.9.2/../../../../avr/lib/avr51\libc.a(memcpy.o)
 .text.avr-libc
                0x00000000       0x12 c:/program files (x86)/atmel/studio/7.0/toolchain/avr8/avr8-gnu-toolchain/bin/../lib/gcc/avr/4.9.2/../../../../avr/lib/avr51\libc.a(memcpy.o)
 .text          0x00000000        0x0 c:/program files (x86)/atmel/studio/7.0/toolchain/avr8/avr8-gnu-toolchain/bin/../lib/gcc/avr/4.9.2/../../../../avr/lib/avr51\libc.a(memset.o)
 .data          0x00000000        0x0 c:/program files (x86)/atmel/studio/7.0/toolchain/avr8/avr8-gnu-toolchain/bin/../lib/gcc/avr/4.9.2/../../../../avr/lib/avr51\libc.a(memset.o)
 .bss           0x00000000        0x0 c:/program files (x86)/atmel/studio/7.0/toolchain/avr8/avr8-gnu-toolchain/bin/../lib/gcc/avr/4.9.2/../../../../avr/lib/avr51\libc.a(memset.o)
 .text.avr-libc
                0x00000000        0xe c:/program files (x86)/atmel/studio/7.0/toolchain/avr8/avr8-gnu-toolchain/bin/../lib/gcc/avr/4.9.2/../../../../avr/lib/avr51\libc.a(memset.o)
 .text          0x00000000        0x0 c:/program files (x86)/atmel/studio/7.0/toolchain/avr8/avr8-gnu-toolchain/bin/../lib/gcc/avr/4.9.2/../../../../avr/lib/avr51\libc.a(strcat.o)
 .data          0x00000000        0x0 c:/program files (x86)/atmel/studio/7.0/toolchain/avr8/avr8-gnu-toolchain/bin/../lib/gcc/avr/4.9.2/../../../../avr/lib/avr51\libc.a(strcat.o)
 .bss           0x00000000        0x0 c:/program files (x86)/atmel/studio/7.0/toolchain/avr8/avr8-gnu-toolchain/bin/../lib/gcc/avr/4.9.2/../../../../avr/lib/avr51\libc.a(strcat.o)
 .text          0x00000000        0x0 c:/program files (x86)/atmel/studio/7.0/toolchain/avr8/avr8-gnu-toolchain/bin/../lib/gcc/avr/4.9.2/../../../../avr/lib/avr51\libc.a(strcpy.o)
 .data          0x00000000        0x0 c:/program files (x86)/atmel/studio/7.0/toolchain/avr8/avr8-gnu-toolchain/bin/../lib/gcc/avr/4.9.2/../../../../avr/lib/avr51\libc.a(strcpy.o)
 .bss           0x00000000        0x0 c:/program files (x86)/atmel/studio/7.0/toolchain/avr8/avr8-gnu-toolchain/bin/../lib/gcc/avr/4.9.2/../../../../avr/lib/avr51\libc.a(strcpy.o)
 .text          0x00000000        0x0 c:/program files (x86)/atmel/studio/7.0/toolchain/avr8/avr8-gnu-toolchain/bin/../lib/gcc/avr/4.9.2/../../../../avr/lib/avr51\libc.a(strncat.o)
 .data          0x00000000        0x0 c:/program files (x86)/atmel/studio/7.0/toolchain/avr8/avr8-gnu-toolchain/bin/../lib/gcc/avr/4.9.2/../../../../avr/lib/avr51\libc.a(strncat.o)
 .bss           0x00000000        0x0 c:/program files (x86)/atmel/studio/7.0/toolchain/avr8/avr8-gnu-toolchain/bin/../lib/gcc/avr/4.9.2/../../../../avr/lib/avr51\libc.a(strncat.o)
 .text          0x00000000        0x0 c:/program files (x86)/atmel/studio/7.0/toolchain/avr8/avr8-gnu-toolchain/bin/../lib/gcc/avr/4.9.2/../../../../avr/lib/avr51\libc.a(itoa_ncheck.o)
 .data          0x00000000        0x0 c:/program files (x86)/atmel/studio/7.0/toolchain/avr8/avr8-gnu-toolchain/bin/../lib/gcc/avr/4.9.2/../../../../avr/lib/avr51\libc.a(itoa_ncheck.o)
 .bss           0x00000000        0x0 c:/program files (x86)/atmel/studio/7.0/toolchain/avr8/avr8-gnu-toolchain/bin/../lib/gcc/avr/4.9.2/../../../../avr/lib/avr51\libc.a(itoa_ncheck.o)
 .text          0x00000000        0x0 c:/program files (x86)/atmel/studio/7.0/toolchain/avr8/avr8-gnu-toolchain/bin/../lib/gcc/avr/4.9.2/../../../../avr/lib/avr51\libc.a(utoa_ncheck.o)
 .data          0x00000000        0x0 c:/program files (x86)/atmel/studio/7.0/toolchain/avr8/avr8-gnu-toolchain/bin/../lib/gcc/avr/4.9.2/../../../../avr/lib/avr51\libc.a(utoa_ncheck.o)
 .bss           0x00000000        0x0 c:/program files (x86)/atmel/studio/7.0/toolchain/avr8/avr8-gnu-toolchain/bin/../lib/gcc/avr/4.9.2/../../../../avr/lib/avr51\libc.a(utoa_ncheck.o)
 .text          0x00000000        0x0 c:/program files (x86)/atmel/studio/7.0/toolchain/avr8/avr8-gnu-toolchain/bin/../lib/gcc/avr/4.9.2/../../../../avr/lib/avr51\libc.a(strrev.o)
 .data          0x00000000        0x0 c:/program files (x86)/atmel/studio/7.0/toolchain/avr8/avr8-gnu-toolchain/bin/../lib/gcc/avr/4.9.2/../../../../avr/lib/avr51\libc.a(strrev.o)
 .bss           0x00000000        0x0 c:/program files (x86)/atmel/studio/7.0/toolchain/avr8/avr8-gnu-toolchain/bin/../lib/gcc/avr/4.9.2/../../../../avr/lib/avr51\libc.a(strrev.o)
 .text          0x00000000        0x0 c:/program files (x86)/atmel/studio/7.0/toolchain/avr8/avr8-gnu-toolchain/bin/../lib/gcc/avr/4.9.2/../../../../avr/lib/avr51\libat90usb1286.a(eerd_byte.o)
 .data          0x00000000        0x0 c:/program files (x86)/atmel/studio/7.0/toolchain/avr8/avr8-gnu-toolchain/bin/../lib/gcc/avr/4.9.2/../../../../avr/lib/avr51\libat90usb1286.a(eerd_byte.o)
 .bss           0x00000000        0x0 c:/program files (x86)/atmel/studio/7.0/toolchain/avr8/avr8-gnu-toolchain/bin/../lib/gcc/avr/4.9.2/../../../../avr/lib/avr51\libat90usb1286.a(eerd_byte.o)
 .text          0x00000000        0x0 c:/program files (x86)/atmel/studio/7.0/toolchain/avr8/avr8-gnu-toolchain/bin/../lib/gcc/avr/4.9.2/../../../../avr/lib/avr51\libat90usb1286.a(eerd_word.o)
 .data          0x00000000        0x0 c:/program files (x86)/atmel/studio/7.0/toolchain/avr8/avr8-gnu-toolchain/bin/../lib/gcc/avr/4.9.2/../../../../avr/lib/avr51\libat90usb1286.a(eerd_word.o)
 .bss           0x00000000        0x0 c:/program files (x86)/atmel/studio/7.0/toolchain/avr8/avr8-gnu-toolchain/bin/../lib/gcc/avr/4.9.2/../../../../avr/lib/avr51\libat90usb1286.a(eerd_word.o)
 .text          0x00000000        0x0 c:/program files (x86)/atmel/studio/7.0/toolchain/avr8/avr8-gnu-toolchain/bin/../lib/gcc/avr/4.9.2/../../../../avr/lib/avr51\libat90usb1286.a(eeupd_byte.o)
 .data          0x00000000        0x0 c:/program files (x86)/atmel/studio/7.0/toolchain/avr8/avr8-gnu-toolchain/bin/../lib/gcc/avr/4.9.2/../../../../avr/lib/avr51\libat90usb1286.a(eeupd_byte.o)
 .bss           0x00000000        0x0 c:/program files (x86)/atmel/studio/7.0/toolchain/avr8/avr8-gnu-toolchain/bin/../lib/gcc/avr/4.9.2/../../../../avr/lib/avr51\libat90usb1286.a(eeupd_byte.o)
 .text          0x00000000        0x0 c:/program files (x86)/atmel/studio/7.0/toolchain/avr8/avr8-gnu-toolchain/bin/../lib/gcc/avr/4.9.2/../../../../avr/lib/avr51\libat90usb1286.a(eeupd_word.o)
 .data          0x00000000        0x0 c:/program files (x86)/atmel/studio/7.0/toolchain/avr8/avr8-gnu-toolchain/bin/../lib/gcc/avr/4.9.2/../../../../avr/lib/avr51\libat90usb1286.a(eeupd_word.o)
 .bss           0x00000000        0x0 c:/program files (x86)/atmel/studio/7.0/toolchain/avr8/avr8-gnu-toolchain/bin/../lib/gcc/avr/4.9.2/../../../../avr/lib/avr51\libat90usb1286.a(eeupd_word.o)
 .text          0x00000000        0x0 c:/program files (x86)/atmel/studio/7.0/toolchain/avr8/avr8-gnu-toolchain/bin/../lib/gcc/avr/4.9.2/../../../../avr/lib/avr51\libat90usb1286.a(eerd_block.o)
 .data          0x00000000        0x0 c:/program files (x86)/atmel/studio/7.0/toolchain/avr8/avr8-gnu-toolchain/bin/../lib/gcc/avr/4.9.2/../../../../avr/lib/avr51\libat90usb1286.a(eerd_block.o)
 .bss           0x00000000        0x0 c:/program files (x86)/atmel/studio/7.0/toolchain/avr8/avr8-gnu-toolchain/bin/../lib/gcc/avr/4.9.2/../../../../avr/lib/avr51\libat90usb1286.a(eerd_block.o)

Memory Configuration

Name             Origin             Length             Attributes
text             0x00000000         0x00020000         xr
data             0x00800100         0x0000ff00         rw !x
eeprom           0x00810000         0x00010000         rw !x
fuse             0x00820000         0x00000003         rw !x
lock             0x00830000         0x00000400         rw !x
signature        0x00840000         0x00000400         rw !x
user_signatures  0x00850000         0x00000400         rw !x
*default*        0x00000000         0xffffffff

Linker script and memory map

Address of section .data set to 0x800100
LOAD c:/program files (x86)/atmel/studio/7.0/toolchain/avr8/avr8-gnu-toolchain/bin/../lib/gcc/avr/4.9.2/../../../../avr/lib/avr51/crtat90usb1286.o
LOAD eeprom/Configuration.o
LOAD eeprom/MemoryLayout.o
LOAD hardware/adc/ADC.o
LOAD hardware/i2c/i2c_master.o
LOAD hardware/lcd/lcd.o
LOAD hardware/midi/MIDI.o
LOAD hardware/reset/Reset.o
LOAD hardware/timer/TimerObject.o
LOAD hardware/uart/UART.o
LOAD hardware/usb/lufa/LUFA/Drivers/USB/Class/Common/HIDParser.o
LOAD hardware/usb/lufa/LUFA/Drivers/USB/Class/Device/AudioClassDevice.o
LOAD hardware/usb/lufa/LUFA/Drivers/USB/Class/Device/CDCClassDevice.o
LOAD hardware/usb/lufa/LUFA/Drivers/USB/Class/Device/HIDClassDevice.o
LOAD hardware/usb/lufa/LUFA/Drivers/USB/Class/Device/MassStorageClassDevice.o
LOAD hardware/usb/lufa/LUFA/Drivers/USB/Class/Device/MIDIClassDevice.o
LOAD hardware/usb/lufa/LUFA/Drivers/USB/Class/Device/PrinterClassDevice.o
LOAD hardware/usb/lufa/LUFA/Drivers/USB/Class/Device/RNDISClassDevice.o
LOAD hardware/usb/lufa/LUFA/Drivers/USB/Class/Host/AndroidAccessoryClassHost.o
LOAD hardware/usb/lufa/LUFA/Drivers/USB/Class/Host/AudioClassHost.o
LOAD hardware/usb/lufa/LUFA/Drivers/USB/Class/Host/CDCClassHost.o
LOAD hardware/usb/lufa/LUFA/Drivers/USB/Class/Host/HIDClassHost.o
LOAD hardware/usb/lufa/LUFA/Drivers/USB/Class/Host/MassStorageClassHost.o
LOAD hardware/usb/lufa/LUFA/Drivers/USB/Class/Host/MIDIClassHost.o
LOAD hardware/usb/lufa/LUFA/Drivers/USB/Class/Host/PrinterClassHost.o
LOAD hardware/usb/lufa/LUFA/Drivers/USB/Class/Host/RNDISClassHost.o
LOAD hardware/usb/lufa/LUFA/Drivers/USB/Class/Host/StillImageClassHost.o
LOAD hardware/usb/lufa/LUFA/Drivers/USB/Core/AVR8/Device_AVR8.o
LOAD hardware/usb/lufa/LUFA/Drivers/USB/Core/AVR8/EndpointStream_AVR8.o
LOAD hardware/usb/lufa/LUFA/Drivers/USB/Core/AVR8/Endpoint_AVR8.o
LOAD hardware/usb/lufa/LUFA/Drivers/USB/Core/AVR8/Host_AVR8.o
LOAD hardware/usb/lufa/LUFA/Drivers/USB/Core/AVR8/PipeStream_AVR8.o
LOAD hardware/usb/lufa/LUFA/Drivers/USB/Core/AVR8/Pipe_AVR8.o
LOAD hardware/usb/lufa/LUFA/Drivers/USB/Core/AVR8/Template/Template_Endpoint_Control_R.o
LOAD hardware/usb/lufa/LUFA/Drivers/USB/Core/AVR8/Template/Template_Endpoint_Control_W.o
LOAD hardware/usb/lufa/LUFA/Drivers/USB/Core/AVR8/Template/Template_Endpoint_RW.o
LOAD hardware/usb/lufa/LUFA/Drivers/USB/Core/AVR8/Template/Template_Pipe_RW.o
LOAD hardware/usb/lufa/LUFA/Drivers/USB/Core/AVR8/USBController_AVR8.o
LOAD hardware/usb/lufa/LUFA/Drivers/USB/Core/AVR8/USBInterrupt_AVR8.o
LOAD hardware/usb/lufa/LUFA/Drivers/USB/Core/ConfigDescriptors.o
LOAD hardware/usb/lufa/LUFA/Drivers/USB/Core/DeviceStandardReq.o
LOAD hardware/usb/lufa/LUFA/Drivers/USB/Core/Events.o
LOAD hardware/usb/lufa/LUFA/Drivers/USB/Core/HostStandardReq.o
LOAD hardware/usb/lufa/LUFA/Drivers/USB/Core/USBTask.o
LOAD hardware/usb/midi/Descriptors.o
LOAD hardware/usb/vserial/Descriptors.o
LOAD init/Init.o
LOAD interface/buttons/Buttons.o
LOAD interface/buttons/Map.o
LOAD interface/buttons/UpdateLogic.o
LOAD interface/encoders/Encoders.o
LOAD interface/lcd/Layout.o
LOAD interface/lcd/menu/functions/MenuFunctions.o
LOAD interface/lcd/menu/layout/ServiceMenu.o
LOAD interface/lcd/menu/layout/UserMenu.o
LOAD interface/lcd/menu/Menu.o
LOAD interface/lcd/MessageBuilder.o
LOAD interface/lcd/UpdateLogic.o
LOAD interface/leds/LEDs.o
LOAD interface/pads/curves/Curves.o
LOAD interface/pads/DataOutput.o
LOAD interface/pads/DataProcessing.o
LOAD interface/pads/EditMode.o
LOAD interface/pads/Getters.o
LOAD interface/pads/HardwareControl.o
LOAD interface/pads/Pads.o
LOAD interface/pads/Scaling.o
LOAD interface/pads/Setters.o
LOAD sysex/SysEx.o
LOAD version/Firmware.o
LOAD vserial/Serial.o
LOAD Zvuk9.o
LOAD midi/MIDI.o
LOAD Scales.o
START GROUP
LOAD c:/program files (x86)/atmel/studio/7.0/toolchain/avr8/avr8-gnu-toolchain/bin/../lib/gcc/avr/4.9.2/../../../../avr/lib/avr51\libm.a
END GROUP
LOAD c:/program files (x86)/atmel/studio/7.0/toolchain/avr8/avr8-gnu-toolchain/bin/../lib/gcc/avr/4.9.2/avr51\libgcc.a
LOAD c:/program files (x86)/atmel/studio/7.0/toolchain/avr8/avr8-gnu-toolchain/bin/../lib/gcc/avr/4.9.2/../../../../avr/lib/avr51\libm.a
START GROUP
LOAD c:/program files (x86)/atmel/studio/7.0/toolchain/avr8/avr8-gnu-toolchain/bin/../lib/gcc/avr/4.9.2/avr51\libgcc.a
LOAD c:/program files (x86)/atmel/studio/7.0/toolchain/avr8/avr8-gnu-toolchain/bin/../lib/gcc/avr/4.9.2/../../../../avr/lib/avr51\libm.a
LOAD c:/program files (x86)/atmel/studio/7.0/toolchain/avr8/avr8-gnu-toolchain/bin/../lib/gcc/avr/4.9.2/../../../../avr/lib/avr51\libc.a
LOAD c:/program files (x86)/atmel/studio/7.0/toolchain/avr8/avr8-gnu-toolchain/bin/../lib/gcc/avr/4.9.2/../../../../avr/lib/avr51\libat90usb1286.a
END GROUP
                0x00020000                __TEXT_REGION_LENGTH__ = DEFINED (__TEXT_REGION_LENGTH__)?__TEXT_REGION_LENGTH__:0x20000
                0x0000ff00                __DATA_REGION_LENGTH__ = DEFINED (__DATA_REGION_LENGTH__)?__DATA_REGION_LENGTH__:0xff00
                0x00010000                __EEPROM_REGION_LENGTH__ = DEFINED (__EEPROM_REGION_LENGTH__)?__EEPROM_REGION_LENGTH__:0x10000
                [0x00000003]                __FUSE_REGION_LENGTH__ = DEFINED (__FUSE_REGION_LENGTH__)?__FUSE_REGION_LENGTH__:0x400
                0x00000400                __LOCK_REGION_LENGTH__ = DEFINED (__LOCK_REGION_LENGTH__)?__LOCK_REGION_LENGTH__:0x400
                0x00000400                __SIGNATURE_REGION_LENGTH__ = DEFINED (__SIGNATURE_REGION_LENGTH__)?__SIGNATURE_REGION_LENGTH__:0x400
                0x00000400                __USER_SIGNATURE_REGION_LENGTH__ = DEFINED (__USER_SIGNATURE_REGION_LENGTH__)?__USER_SIGNATURE_REGION_LENGTH__:0x400

.hash
 *(.hash)

.dynsym
 *(.dynsym)

.dynstr
 *(.dynstr)

.gnu.version
 *(.gnu.version)

.gnu.version_d
 *(.gnu.version_d)

.gnu.version_r
 *(.gnu.version_r)

.rel.init
 *(.rel.init)

.rela.init
 *(.rela.init)

.rel.text
 *(.rel.text)
 *(.rel.text.*)
 *(.rel.gnu.linkonce.t*)

.rela.text
 *(.rela.text)
 *(.rela.text.*)
 *(.rela.gnu.linkonce.t*)

.rel.fini
 *(.rel.fini)

.rela.fini
 *(.rela.fini)

.rel.rodata
 *(.rel.rodata)
 *(.rel.rodata.*)
 *(.rel.gnu.linkonce.r*)

.rela.rodata
 *(.rela.rodata)
 *(.rela.rodata.*)
 *(.rela.gnu.linkonce.r*)

.rel.data
 *(.rel.data)
 *(.rel.data.*)
 *(.rel.gnu.linkonce.d*)

.rela.data
 *(.rela.data)
 *(.rela.data.*)
 *(.rela.gnu.linkonce.d*)

.rel.ctors
 *(.rel.ctors)

.rela.ctors
 *(.rela.ctors)

.rel.dtors
 *(.rel.dtors)

.rela.dtors
 *(.rela.dtors)

.rel.got
 *(.rel.got)

.rela.got
 *(.rela.got)

.rel.bss
 *(.rel.bss)

.rela.bss
 *(.rela.bss)

.rel.plt
 *(.rel.plt)

.rela.plt
 *(.rela.plt)

.text           0x00000000    0x10692
 *(.vectors)
 .vectors       0x00000000       0x98 c:/program files (x86)/atmel/studio/7.0/toolchain/avr8/avr8-gnu-toolchain/bin/../lib/gcc/avr/4.9.2/../../../../avr/lib/avr51/crtat90usb1286.o
                0x00000000                __vector_default
                0x00000000                __vectors
 *(.vectors)
 *(.progmem.gcc*)
 .progmem.gcc_sw_table._ZN6HWmidi5parseE19midiInterfaceType_t
                0x00000098      0x100 hardware/midi/MIDI.o
 .progmem.gcc_sw_table.USB_Device_ProcessControlRequest
                0x00000198       0x14 hardware/usb/lufa/LUFA/Drivers/USB/Core/DeviceStandardReq.o
 .progmem.gcc_sw_table._ZN7Buttons18getTonicFromButtonEh
                0x000001ac       0x28 interface/buttons/Buttons.o
 .progmem.gcc_sw_table._ZN7Buttons13processButtonEhb
                0x000001d4       0x40 interface/buttons/UpdateLogic.o
 .progmem.gcc_sw_table._ZN8Encoders13handleEncoderEhbh
                0x00000214       0x14 interface/encoders/Encoders.o
 .progmem.gcc_sw_table._ZN3LCD22displayPadReleaseErrorE17padReleaseError_t
                0x00000228        0xe interface/lcd/MessageBuilder.o
 .progmem.gcc_sw_table._Z12getScaleNote7scale_th
                0x00000236        0xe Scales.o
 .progmem.gcc_fplib
                0x00000244       0x5a c:/program files (x86)/atmel/studio/7.0/toolchain/avr8/avr8-gnu-toolchain/bin/../lib/gcc/avr/4.9.2/../../../../avr/lib/avr51\libm.a(log.o)
 .progmem.gcc_fplib
                0x0000029e       0x28 c:/program files (x86)/atmel/studio/7.0/toolchain/avr8/avr8-gnu-toolchain/bin/../lib/gcc/avr/4.9.2/../../../../avr/lib/avr51\libm.a(exp.o)
                0x000002c6                . = ALIGN (0x2)
                0x000002c6                __trampolines_start = .
 *(.trampolines)
 .trampolines   0x000002c6        0x0 linker stubs
 *(.trampolines*)
                0x000002c6                __trampolines_end = .
 *(.progmem*)
 .progmem.data._ZL15complete_string
                0x000002c6        0xa eeprom/Configuration.o
 .progmem.data._ZL17pleaseWait_string
                0x000002d0        0xf eeprom/Configuration.o
 .progmem.data._ZL24restoringDefaults_string
                0x000002df       0x14 eeprom/Configuration.o
 .progmem.data.ProductString
                0x000002f3        0xe hardware/usb/midi/Descriptors.o
                0x000002f3                ProductString
 .progmem.data.ManufacturerString
                0x00000301       0x18 hardware/usb/midi/Descriptors.o
                0x00000301                ManufacturerString
 .progmem.data.LanguageString
                0x00000319        0x4 hardware/usb/midi/Descriptors.o
                0x00000319                LanguageString
 .progmem.data.ConfigurationDescriptor
                0x0000031d       0x65 hardware/usb/midi/Descriptors.o
                0x0000031d                ConfigurationDescriptor
 .progmem.data.DeviceDescriptor
                0x00000382       0x12 hardware/usb/midi/Descriptors.o
                0x00000382                DeviceDescriptor
 .progmem.data._ZL27calibration_pressure_string
                0x00000394       0x13 interface/lcd/menu/layout/ServiceMenu.o
 .progmem.data._ZL20calibration_y_string
                0x000003a7        0xc interface/lcd/menu/layout/ServiceMenu.o
 .progmem.data._ZL20calibration_x_string
                0x000003b3        0xc interface/lcd/menu/layout/ServiceMenu.o
 .progmem.data._ZL30menuOption_factoryReset_string
                0x000003bf        0xe interface/lcd/menu/layout/ServiceMenu.o
 .progmem.data._ZL28menuOption_deviceInfo_string
                0x000003cd        0xc interface/lcd/menu/layout/ServiceMenu.o
 .progmem.data._ZL32menuOption_padCalibration_string
                0x000003d9       0x10 interface/lcd/menu/layout/ServiceMenu.o
 .progmem.data._ZL25noteOff_offChannel_string
                0x000003e9        0xc interface/lcd/menu/layout/UserMenu.o
 .progmem.data._ZL22noteOff_zeroVel_string
                0x000003f5       0x11 interface/lcd/menu/layout/UserMenu.o
 .progmem.data._ZL22disabled_string_string
                0x00000406        0x9 interface/lcd/menu/layout/UserMenu.o
 .progmem.data._ZL21enabled_string_string
                0x0000040f        0x8 interface/lcd/menu/layout/UserMenu.o
 .progmem.data._ZL26aftertouchType_poly_string
                0x00000417        0x5 interface/lcd/menu/layout/UserMenu.o
 .progmem.data._ZL29aftertouchType_channel_string
                0x0000041c        0x8 interface/lcd/menu/layout/UserMenu.o
 .progmem.data._ZL27midiSettings_noteOff_string
                0x00000424        0x9 interface/lcd/menu/layout/UserMenu.o
 .progmem.data._ZL33midiSettings_runningStatus_string
                0x0000042d        0xf interface/lcd/menu/layout/UserMenu.o
 .progmem.data._ZL30midiSettings_atouchType_string
                0x0000043c       0x10 interface/lcd/menu/layout/UserMenu.o
 .progmem.data._ZL29pressure_curve_inv_exp_string
                0x0000044c        0x5 interface/lcd/menu/layout/UserMenu.o
 .progmem.data._ZL25pressure_curve_log_string
                0x00000451        0x5 interface/lcd/menu/layout/UserMenu.o
 .progmem.data._ZL28pressure_curve_linear_string
                0x00000456        0x7 interface/lcd/menu/layout/UserMenu.o
 .progmem.data._ZL29pressure_sensitivity_3_string
                0x0000045d        0x5 interface/lcd/menu/layout/UserMenu.o
 .progmem.data._ZL29pressure_sensitivity_2_string
                0x00000462        0x7 interface/lcd/menu/layout/UserMenu.o
 .progmem.data._ZL29pressure_sensitivity_1_string
                0x00000469        0x5 interface/lcd/menu/layout/UserMenu.o
 .progmem.data._ZL30menuOption_midiSettings_string
                0x0000046e        0xe interface/lcd/menu/layout/UserMenu.o
 .progmem.data._ZL31menuOption_pressureCurve_string
                0x0000047c        0xd interface/lcd/menu/layout/UserMenu.o
 .progmem.data._ZL37menuOption_pressureSensitivity_string
                0x00000489       0x13 interface/lcd/menu/layout/UserMenu.o
 .progmem.data._ZL30menuOption_factoryReset_string
                0x0000049c        0xe interface/lcd/menu/layout/UserMenu.o
 .progmem.data._ZL28menuOption_deviceInfo_string
                0x000004aa        0xc interface/lcd/menu/layout/UserMenu.o
 .progmem.data._ZL16emptyLine_string
                0x000004b6       0x15 interface/lcd/menu/Menu.o
 .progmem.data._ZL16unchecked_string
                0x000004cb        0x4 interface/lcd/menu/Menu.o
 .progmem.data._ZL14checked_string
                0x000004cf        0x4 interface/lcd/menu/Menu.o
 .progmem.data._ZL23menuType_service_string
                0x000004d3        0xd interface/lcd/menu/Menu.o
 .progmem.data._ZL20menuType_user_string
                0x000004e0        0x9 interface/lcd/menu/Menu.o
 .progmem.data._ZL16firmware_updated
                0x000004e9       0x12 interface/lcd/MessageBuilder.o
 .progmem.data._ZL18midiChannel_string
                0x000004fb        0x3 interface/lcd/MessageBuilder.o
 .progmem.data._ZL22aftertouchClear_string
                0x000004fe        0x6 interface/lcd/MessageBuilder.o
 .progmem.data._ZL17editingPad_string
                0x00000504        0xc interface/lcd/MessageBuilder.o
 .progmem.data._ZL24midiChannelChange_string
                0x00000510        0xe interface/lcd/MessageBuilder.o
 .progmem.data._ZL14welcome_string
                0x0000051e        0x9 interface/lcd/MessageBuilder.o
 .progmem.data._ZL17aftertouch_string
                0x00000527        0x3 interface/lcd/MessageBuilder.o
 .progmem.data._ZL14program_string
                0x0000052a        0x2 interface/lcd/MessageBuilder.o
 .progmem.data._ZL16emptyLine_string
                0x0000052c       0x15 interface/lcd/MessageBuilder.o
 .progmem.data._ZL19padAmountAll_string
                0x00000541        0x9 interface/lcd/MessageBuilder.o
 .progmem.data._ZL22padAmountSingle_string
                0x0000054a        0x4 interface/lcd/MessageBuilder.o
 .progmem.data._ZL33transportControlChangeArray_sizes
                0x0000054e        0x4 interface/lcd/MessageBuilder.o
 .progmem.data._ZL27transportControlChangeArray
                0x00000552        0x8 interface/lcd/MessageBuilder.o
 .progmem.data._ZL32transportControlRecordOff_string
                0x0000055a        0xb interface/lcd/MessageBuilder.o
 .progmem.data._ZL31transportControlRecordOn_string
                0x00000565        0xa interface/lcd/MessageBuilder.o
 .progmem.data._ZL27transportControlStop_string
                0x0000056f        0x5 interface/lcd/MessageBuilder.o
 .progmem.data._ZL27transportControlPlay_string
                0x00000574        0x5 interface/lcd/MessageBuilder.o
 .progmem.data._ZL13ccArray_sizes
                0x00000579        0x2 interface/lcd/MessageBuilder.o
 .progmem.data._ZL7ccArray
                0x0000057b        0x4 interface/lcd/MessageBuilder.o
 .progmem.data._ZL26curveCoordinateArray_sizes
                0x0000057f        0x2 interface/lcd/MessageBuilder.o
 .progmem.data._ZL20curveCoordinateArray
                0x00000581        0x4 interface/lcd/MessageBuilder.o
 .progmem.data._ZL16xyCCclear_string
                0x00000585        0x7 interface/lcd/MessageBuilder.o
 .progmem.data._ZL22xyPositionClear_string
                0x0000058c        0x5 interface/lcd/MessageBuilder.o
 .progmem.data._ZL16yPosition_string
                0x00000591        0x2 interface/lcd/MessageBuilder.o
 .progmem.data._ZL16xPosition_string
                0x00000593        0x2 interface/lcd/MessageBuilder.o
 .progmem.data._ZL12yCCid_string
                0x00000595        0x4 interface/lcd/MessageBuilder.o
 .progmem.data._ZL12xCCid_string
                0x00000599        0x4 interface/lcd/MessageBuilder.o
 .progmem.data._ZL10yCC_string
                0x0000059d        0x6 interface/lcd/MessageBuilder.o
 .progmem.data._ZL10xCC_string
                0x000005a3        0x6 interface/lcd/MessageBuilder.o
 .progmem.data._ZL11yMin_string
                0x000005a9        0x7 interface/lcd/MessageBuilder.o
 .progmem.data._ZL11yMax_string
                0x000005b0        0x7 interface/lcd/MessageBuilder.o
 .progmem.data._ZL11xMin_string
                0x000005b7        0x7 interface/lcd/MessageBuilder.o
 .progmem.data._ZL11xMax_string
                0x000005be        0x7 interface/lcd/MessageBuilder.o
 .progmem.data._ZL24curveTypeWideEnds_string
                0x000005c5        0xa interface/lcd/MessageBuilder.o
 .progmem.data._ZL26curveTypeWideMiddle_string
                0x000005cf        0xc interface/lcd/MessageBuilder.o
 .progmem.data._ZL22curveTypeLinear_string
                0x000005db        0x7 interface/lcd/MessageBuilder.o
 .progmem.data._ZL23curveCoordinateY_string
                0x000005e2        0x9 interface/lcd/MessageBuilder.o
 .progmem.data._ZL23curveCoordinateX_string
                0x000005eb        0x9 interface/lcd/MessageBuilder.o
 .progmem.data._ZL13onArray_sizes
                0x000005f4        0x5 interface/lcd/MessageBuilder.o
 .progmem.data._ZL7onArray
                0x000005f9        0xa interface/lcd/MessageBuilder.o
 .progmem.data._ZL14offArray_sizes
                0x00000603        0x5 interface/lcd/MessageBuilder.o
 .progmem.data._ZL8offArray
                0x00000608        0xa interface/lcd/MessageBuilder.o
 .progmem.data._ZL14onSplit_string
                0x00000612        0x9 interface/lcd/MessageBuilder.o
 .progmem.data._ZL10onY_string
                0x0000061b        0x5 interface/lcd/MessageBuilder.o
 .progmem.data._ZL10onX_string
                0x00000620        0x5 interface/lcd/MessageBuilder.o
 .progmem.data._ZL19onAftertouch_string
                0x00000625        0xe interface/lcd/MessageBuilder.o
 .progmem.data._ZL14onNotes_string
                0x00000633        0x9 interface/lcd/MessageBuilder.o
 .progmem.data._ZL15offSplit_string
                0x0000063c        0xa interface/lcd/MessageBuilder.o
 .progmem.data._ZL11offY_string
                0x00000646        0x6 interface/lcd/MessageBuilder.o
 .progmem.data._ZL11offX_string
                0x0000064c        0x6 interface/lcd/MessageBuilder.o
 .progmem.data._ZL20offAftertouch_string
                0x00000652        0xf interface/lcd/MessageBuilder.o
 .progmem.data._ZL15offNotes_string
                0x00000661        0xa interface/lcd/MessageBuilder.o
 .progmem.data._ZL21presetNameArray_sizes
                0x0000066b        0x8 interface/lcd/MessageBuilder.o
 .progmem.data._ZL15presetNameArray
                0x00000673       0x10 interface/lcd/MessageBuilder.o
 .progmem.data._ZL17presetUser_string
                0x00000683        0xc interface/lcd/MessageBuilder.o
 .progmem.data._ZL28presetMajorPentatonic_string
                0x0000068f       0x11 interface/lcd/MessageBuilder.o
 .progmem.data._ZL28presetMinorPentatonic_string
                0x000006a0       0x11 interface/lcd/MessageBuilder.o
 .progmem.data._ZL26presetHarmonicMajor_string
                0x000006b1        0xf interface/lcd/MessageBuilder.o
 .progmem.data._ZL18presetMajor_string
                0x000006c0        0x6 interface/lcd/MessageBuilder.o
 .progmem.data._ZL26presetHarmonicMinor_string
                0x000006c6        0xf interface/lcd/MessageBuilder.o
 .progmem.data._ZL25presetMelodicMinor_string
                0x000006d5        0xe interface/lcd/MessageBuilder.o
 .progmem.data._ZL25presetNaturalMinor_string
                0x000006e3        0xe interface/lcd/MessageBuilder.o
 .progmem.data._ZL30factory_reset_warning_3_string
                0x000006f1       0x13 interface/lcd/MessageBuilder.o
 .progmem.data._ZL30factory_reset_warning_2_string
                0x00000704       0x14 interface/lcd/MessageBuilder.o
 .progmem.data._ZL30factory_reset_warning_1_string
                0x00000718       0x14 interface/lcd/MessageBuilder.o
 .progmem.data._ZL27deviceInfo_hwVersion_string
                0x0000072c        0xb interface/lcd/MessageBuilder.o
 .progmem.data._ZL27deviceInfo_swVersion_string
                0x00000737        0xb interface/lcd/MessageBuilder.o
 .progmem.data._ZL35menuOption_factoryReset_caps_string
                0x00000742       0x14 interface/lcd/MessageBuilder.o
 .progmem.data._ZL19maxNotesSet1_string
                0x00000756        0xa interface/lcd/MessageBuilder.o
 .progmem.data._ZL19maxNotesSet0_string
                0x00000760       0x12 interface/lcd/MessageBuilder.o
 .progmem.data._ZL18exitPadMode_string
                0x00000772       0x11 interface/lcd/MessageBuilder.o
 .progmem.data._ZL22calibrationMode_string
                0x00000783       0x12 interface/lcd/MessageBuilder.o
 .progmem.data._ZL23enterPadEditMode_string
                0x00000795       0x14 interface/lcd/MessageBuilder.o
 .progmem.data._ZL20changeCClimit_string
                0x000007a9       0x10 interface/lcd/MessageBuilder.o
 .progmem.data._ZL15changeCC_string
                0x000007b9        0xa interface/lcd/MessageBuilder.o
 .progmem.data._ZL18changeCurve_string
                0x000007c3        0xd interface/lcd/MessageBuilder.o
 .progmem.data._ZL19changePreset_string
                0x000007d0        0xe interface/lcd/MessageBuilder.o
 .progmem.data._ZL20changeProgram_string
                0x000007de        0xf interface/lcd/MessageBuilder.o
 .progmem.data._ZL23changeParameters_string
                0x000007ed       0x12 interface/lcd/MessageBuilder.o
 .progmem.data._ZL16relasePad_string
                0x000007ff       0x14 interface/lcd/MessageBuilder.o
 .progmem.data._ZL26editModeEnterError1_string
                0x00000813       0x12 interface/lcd/MessageBuilder.o
 .progmem.data._ZL26editModeEnterError0_string
                0x00000825       0x13 interface/lcd/MessageBuilder.o
 .progmem.data._ZL17outOfRange_string
                0x00000838        0xd interface/lcd/MessageBuilder.o
 .progmem.data._ZL19noteNameArray_sizes
                0x00000845        0xc interface/lcd/MessageBuilder.o
 .progmem.data._ZL13noteNameArray
                0x00000851       0x18 interface/lcd/MessageBuilder.o
 .progmem.data._ZL16noteShift_string
                0x00000869        0x2 interface/lcd/MessageBuilder.o
 .progmem.data._ZL17notesClear_string
                0x0000086b       0x1a interface/lcd/MessageBuilder.o
 .progmem.data._ZL15velocity_string
                0x00000885        0x2 interface/lcd/MessageBuilder.o
 .progmem.data._ZL13noteUp_string
                0x00000887        0xc interface/lcd/MessageBuilder.o
 .progmem.data._ZL15noteDown_string
                0x00000893        0xe interface/lcd/MessageBuilder.o
 .progmem.data._ZL19activeOctave_string
                0x000008a1       0x10 interface/lcd/MessageBuilder.o
 .progmem.data._ZL13octave_string
                0x000008b1        0x8 interface/lcd/MessageBuilder.o
 .progmem.data._ZL12tonic_string
                0x000008b9        0x7 interface/lcd/MessageBuilder.o
 .progmem.data._ZL14noNotes_string
                0x000008c0       0x14 interface/lcd/MessageBuilder.o
 .progmem.data._ZL12tonicB_strig
                0x000008d4        0x2 interface/lcd/MessageBuilder.o
 .progmem.data._ZL18tonicASharp_string
                0x000008d6        0x3 interface/lcd/MessageBuilder.o
 .progmem.data._ZL13tonicA_string
                0x000008d9        0x2 interface/lcd/MessageBuilder.o
 .progmem.data._ZL18tonicGSharp_string
                0x000008db        0x3 interface/lcd/MessageBuilder.o
 .progmem.data._ZL13tonicG_string
                0x000008de        0x2 interface/lcd/MessageBuilder.o
 .progmem.data._ZL18tonicFSharp_string
                0x000008e0        0x3 interface/lcd/MessageBuilder.o
 .progmem.data._ZL13tonicF_string
                0x000008e3        0x2 interface/lcd/MessageBuilder.o
 .progmem.data._ZL13tonicE_string
                0x000008e5        0x2 interface/lcd/MessageBuilder.o
 .progmem.data._ZL18tonicDSharp_string
                0x000008e7        0x3 interface/lcd/MessageBuilder.o
 .progmem.data._ZL13tonicD_string
                0x000008ea        0x2 interface/lcd/MessageBuilder.o
 .progmem.data._ZL18tonicCSharp_string
                0x000008ec        0x3 interface/lcd/MessageBuilder.o
 .progmem.data._ZL13tonicC_string
                0x000008ef        0x2 interface/lcd/MessageBuilder.o
 .progmem.data._ZL10scaleArray
                0x000008f1       0x12 interface/pads/curves/Curves.o
 .progmem.data._ZL6gain_9
                0x00000903       0x80 interface/pads/curves/Curves.o
 .progmem.data._ZL6gain_8
                0x00000983       0x80 interface/pads/curves/Curves.o
 .progmem.data._ZL6gain_7
                0x00000a03       0x80 interface/pads/curves/Curves.o
 .progmem.data._ZL6gain_6
                0x00000a83       0x80 interface/pads/curves/Curves.o
 .progmem.data._ZL6gain_5
                0x00000b03       0x80 interface/pads/curves/Curves.o
 .progmem.data._ZL6gain_4
                0x00000b83       0x80 interface/pads/curves/Curves.o
 .progmem.data._ZL6gain_3
                0x00000c03       0x80 interface/pads/curves/Curves.o
 .progmem.data._ZL6gain_2
                0x00000c83       0x80 interface/pads/curves/Curves.o
 .progmem.data._ZL6gain_1
                0x00000d03       0x80 interface/pads/curves/Curves.o
                0x00000d84                . = ALIGN (0x2)
 *fill*         0x00000d83        0x1 
 *(.jumptables)
 *(.jumptables*)
 *(.lowtext)
 *(.lowtext*)
                0x00000d84                __ctors_start = .
 *(.ctors)
 .ctors         0x00000d84        0x2 eeprom/Configuration.o
 .ctors         0x00000d86        0x2 hardware/midi/MIDI.o
 .ctors         0x00000d88        0x2 interface/buttons/Buttons.o
 .ctors         0x00000d8a        0x2 interface/encoders/Encoders.o
 .ctors         0x00000d8c        0x2 interface/lcd/menu/Menu.o
 .ctors         0x00000d8e        0x2 interface/lcd/UpdateLogic.o
 .ctors         0x00000d90        0x2 interface/pads/curves/Curves.o
 .ctors         0x00000d92        0x2 interface/pads/HardwareControl.o
 .ctors         0x00000d94        0x2 interface/pads/Pads.o
 .ctors         0x00000d96        0x2 sysex/SysEx.o
                0x00000d98                __ctors_end = .
                0x00000d98                __dtors_start = .
 *(.dtors)
                0x00000d98                __dtors_end = .
 SORT(*)(.ctors)
 SORT(*)(.dtors)
 *(.init0)
 .init0         0x00000d98        0x0 c:/program files (x86)/atmel/studio/7.0/toolchain/avr8/avr8-gnu-toolchain/bin/../lib/gcc/avr/4.9.2/../../../../avr/lib/avr51/crtat90usb1286.o
                0x00000d98                __init
 *(.init0)
 *(.init1)
 *(.init1)
 *(.init2)
 .init2         0x00000d98        0xc c:/program files (x86)/atmel/studio/7.0/toolchain/avr8/avr8-gnu-toolchain/bin/../lib/gcc/avr/4.9.2/../../../../avr/lib/avr51/crtat90usb1286.o
 *(.init2)
 *(.init3)
 *(.init3)
 *(.init4)
 .init4         0x00000da4       0x1a c:/program files (x86)/atmel/studio/7.0/toolchain/avr8/avr8-gnu-toolchain/bin/../lib/gcc/avr/4.9.2/avr51\libgcc.a(_copy_data.o)
                0x00000da4                __do_copy_data
 .init4         0x00000dbe       0x10 c:/program files (x86)/atmel/studio/7.0/toolchain/avr8/avr8-gnu-toolchain/bin/../lib/gcc/avr/4.9.2/avr51\libgcc.a(_clear_bss.o)
                0x00000dbe                __do_clear_bss
 *(.init4)
 *(.init5)
 *(.init5)
 *(.init6)
 .init6         0x00000dce       0x16 c:/program files (x86)/atmel/studio/7.0/toolchain/avr8/avr8-gnu-toolchain/bin/../lib/gcc/avr/4.9.2/avr51\libgcc.a(_ctors.o)
                0x00000dce                __do_global_ctors
 *(.init6)
 *(.init7)
 *(.init7)
 *(.init8)
 *(.init8)
 *(.init9)
 .init9         0x00000de4        0x8 c:/program files (x86)/atmel/studio/7.0/toolchain/avr8/avr8-gnu-toolchain/bin/../lib/gcc/avr/4.9.2/../../../../avr/lib/avr51/crtat90usb1286.o
 *(.init9)
 *(.text)
 .text          0x00000dec        0x2 c:/program files (x86)/atmel/studio/7.0/toolchain/avr8/avr8-gnu-toolchain/bin/../lib/gcc/avr/4.9.2/../../../../avr/lib/avr51/crtat90usb1286.o
                0x00000dec                __vector_22
                0x00000dec                __vector_28
                0x00000dec                __vector_1
                0x00000dec                __vector_34
                0x00000dec                __vector_24
                0x00000dec                __vector_12
                0x00000dec                __bad_interrupt
                0x00000dec                __vector_6
                0x00000dec                __vector_31
                0x00000dec                __vector_35
                0x00000dec                __vector_3
                0x00000dec                __vector_23
                0x00000dec                __vector_30
                0x00000dec                __vector_13
                0x00000dec                __vector_17
                0x00000dec                __vector_19
                0x00000dec                __vector_7
                0x00000dec                __vector_5
                0x00000dec                __vector_33
                0x00000dec                __vector_37
                0x00000dec                __vector_4
                0x00000dec                __vector_9
                0x00000dec                __vector_2
                0x00000dec                __vector_15
                0x00000dec                __vector_36
                0x00000dec                __vector_8
                0x00000dec                __vector_14
                0x00000dec                __vector_16
                0x00000dec                __vector_18
                0x00000dec                __vector_20
                0x00000dee                . = ALIGN (0x2)
 *(.text.*)
 .text._ZN13Configuration14writeSignatureEv
                0x00000dee       0x2c eeprom/Configuration.o
                0x00000dee                _ZN13Configuration14writeSignatureEv
 .text._ZN13ConfigurationC2Ev
                0x00000e1a       0x48 eeprom/Configuration.o
                0x00000e1a                _ZN13ConfigurationC2Ev
                0x00000e1a                _ZN13ConfigurationC1Ev
 .text._ZN13Configuration11clearEEPROMEv
                0x00000e62       0x20 eeprom/Configuration.o
                0x00000e62                _ZN13Configuration11clearEEPROMEv
 .text._ZN13Configuration22createSectionAddressesEv
                0x00000e82      0x270 eeprom/Configuration.o
                0x00000e82                _ZN13Configuration22createSectionAddressesEv
 .text._ZN13Configuration19initProgramSettingsEb
                0x000010f2      0x1fc eeprom/Configuration.o
                0x000010f2                _ZN13Configuration19initProgramSettingsEb
 .text._ZN13Configuration14initUserScalesEb
                0x000012ee       0xe8 eeprom/Configuration.o
                0x000012ee                _ZN13Configuration14initUserScalesEb
 .text._ZN13Configuration18initPadCalibrationEb
                0x000013d6      0x162 eeprom/Configuration.o
                0x000013d6                _ZN13Configuration18initPadCalibrationEb
 .text._ZN13Configuration16initMIDIsettingsEb
                0x00001538       0x42 eeprom/Configuration.o
                0x00001538                _ZN13Configuration16initMIDIsettingsEb
 .text._ZN13Configuration12initSettingsEb
                0x0000157a       0x26 eeprom/Configuration.o
                0x0000157a                _ZN13Configuration12initSettingsEb
 .text._ZN13Configuration12factoryResetE18factoryResetType_t
                0x000015a0       0x9c eeprom/Configuration.o
                0x000015a0                _ZN13Configuration12factoryResetE18factoryResetType_t
 .text._ZN13Configuration10checkResetEv
                0x0000163c       0x70 eeprom/Configuration.o
                0x0000163c                _ZN13Configuration10checkResetEv
 .text._ZN13Configuration4initEv
                0x000016ac       0x16 eeprom/Configuration.o
                0x000016ac                _ZN13Configuration4initEv
 .text._ZN13Configuration6updateEv
                0x000016c2       0x8c eeprom/Configuration.o
                0x000016c2                _ZN13Configuration6updateEv
 .text._ZN13Configuration9queueDataEjjh
                0x0000174e       0x80 eeprom/Configuration.o
                0x0000174e                _ZN13Configuration9queueDataEjjh
 .text._ZN13Configuration14writeParameterEhhiib
                0x000017ce      0x1a6 eeprom/Configuration.o
                0x000017ce                _ZN13Configuration14writeParameterEhhiib
 .text._GLOBAL__sub_I__ZN13Configuration12factoryResetE18factoryResetType_t
                0x00001974        0x8 eeprom/Configuration.o
 .text._ZN13Configuration18createMemoryLayoutEv
                0x0000197c       0xf6 eeprom/MemoryLayout.o
                0x0000197c                _ZN13Configuration18createMemoryLayoutEv
 .text._Z15setADCprescaler12adcPrescaler
                0x00001a72       0x4a hardware/adc/ADC.o
                0x00001a72                _Z15setADCprescaler12adcPrescaler
 .text._Z19setVoltageReference7adcVRef
                0x00001abc       0x42 hardware/adc/ADC.o
                0x00001abc                _Z19setVoltageReference7adcVRef
 .text._Z13setADCchannelh
                0x00001afe       0x16 hardware/adc/ADC.o
                0x00001afe                _Z13setADCchannelh
 .text._Z11getADCvaluev
                0x00001b14       0x34 hardware/adc/ADC.o
                0x00001b14                _Z11getADCvaluev
 .text._Z7initADC12adcPrescalerb7adcVRef
                0x00001b48       0x54 hardware/adc/ADC.o
                0x00001b48                _Z7initADC12adcPrescalerb7adcVRef
 .text.__vector_29
                0x00001b9c       0x2c hardware/adc/ADC.o
                0x00001b9c                __vector_29
 .text._Z20analogReadInProgressv
                0x00001bc8        0xc hardware/adc/ADC.o
                0x00001bc8                _Z20analogReadInProgressv
 .text._Z8i2c_initv
                0x00001bd4        0x8 hardware/i2c/i2c_master.o
                0x00001bd4                _Z8i2c_initv
 .text._Z9i2c_starth
                0x00001bdc       0x4a hardware/i2c/i2c_master.o
                0x00001bdc                _Z9i2c_starth
 .text._Z9i2c_writeh
                0x00001c26       0x24 hardware/i2c/i2c_master.o
                0x00001c26                _Z9i2c_writeh
 .text._Z13i2c_read_nackv
                0x00001c4a       0x16 hardware/i2c/i2c_master.o
                0x00001c4a                _Z13i2c_read_nackv
 .text._Z8i2c_stopv
                0x00001c60        0x8 hardware/i2c/i2c_master.o
                0x00001c60                _Z8i2c_stopv
 .text._ZL8toggle_ev
                0x00001c68        0xe hardware/lcd/lcd.o
 .text._ZL9lcd_writehh
                0x00001c76       0x5a hardware/lcd/lcd.o
 .text._ZL8lcd_readh
                0x00001cd0       0x5c hardware/lcd/lcd.o
 .text._ZL12lcd_waitbusyv
                0x00001d2c       0x16 hardware/lcd/lcd.o
 .text._Z11lcd_commandh
                0x00001d42       0x10 hardware/lcd/lcd.o
                0x00001d42                _Z11lcd_commandh
 .text._Z10lcd_gotoxyhh
                0x00001d52       0x24 hardware/lcd/lcd.o
                0x00001d52                _Z10lcd_gotoxyhh
 .text._Z10lcd_clrscrv
                0x00001d76        0x6 hardware/lcd/lcd.o
                0x00001d76                _Z10lcd_clrscrv
 .text._Z8lcd_putcc
                0x00001d7c       0x3a hardware/lcd/lcd.o
                0x00001d7c                _Z8lcd_putcc
 .text._Z8lcd_putsPKc
                0x00001db6       0x1e hardware/lcd/lcd.o
                0x00001db6                _Z8lcd_putsPKc
 .text._Z8lcd_inith
                0x00001dd4       0x72 hardware/lcd/lcd.o
                0x00001dd4                _Z8lcd_inith
 .text._ZN6HWmidiC2Ev
                0x00001e46       0x4c hardware/midi/MIDI.o
                0x00001e46                _ZN6HWmidiC1Ev
                0x00001e46                _ZN6HWmidiC2Ev
 .text._ZN6HWmidi4initEbb19midiInterfaceType_t
                0x00001e92       0x32 hardware/midi/MIDI.o
                0x00001e92                _ZN6HWmidi4initEbb19midiInterfaceType_t
 .text._ZN6HWmidi9sendSysExEjPKhb19midiInterfaceType_t
                0x00001ec4      0x40e hardware/midi/MIDI.o
                0x00001ec4                _ZN6HWmidi9sendSysExEjPKhb19midiInterfaceType_t
 .text._ZN6HWmidi12sendRealTimeE17midiMessageType_t19midiInterfaceType_t
                0x000022d2       0x40 hardware/midi/MIDI.o
                0x000022d2                _ZN6HWmidi12sendRealTimeE17midiMessageType_t19midiInterfaceType_t
 .text._ZN6HWmidi4sendE17midiMessageType_thhh19midiInterfaceType_t
                0x00002312       0xfc hardware/midi/MIDI.o
                0x00002312                _ZN6HWmidi4sendE17midiMessageType_thhh19midiInterfaceType_t
 .text._ZN6HWmidi10sendNoteOnEhhh19midiInterfaceType_t
                0x0000240e       0x16 hardware/midi/MIDI.o
                0x0000240e                _ZN6HWmidi10sendNoteOnEhhh19midiInterfaceType_t
 .text._ZN6HWmidi11sendNoteOffEhhh19midiInterfaceType_t
                0x00002424       0x16 hardware/midi/MIDI.o
                0x00002424                _ZN6HWmidi11sendNoteOffEhhh19midiInterfaceType_t
 .text._ZN6HWmidi17sendControlChangeEhhh19midiInterfaceType_t
                0x0000243a       0x16 hardware/midi/MIDI.o
                0x0000243a                _ZN6HWmidi17sendControlChangeEhhh19midiInterfaceType_t
 .text._ZN6HWmidi16sendPolyPressureEhhh19midiInterfaceType_t
                0x00002450       0x16 hardware/midi/MIDI.o
                0x00002450                _ZN6HWmidi16sendPolyPressureEhhh19midiInterfaceType_t
 .text._ZN6HWmidi14sendAfterTouchEhh19midiInterfaceType_t
                0x00002466       0x16 hardware/midi/MIDI.o
                0x00002466                _ZN6HWmidi14sendAfterTouchEhh19midiInterfaceType_t
 .text._ZN6HWmidi19enableRunningStatusEv
                0x0000247c        0x8 hardware/midi/MIDI.o
                0x0000247c                _ZN6HWmidi19enableRunningStatusEv
 .text._ZN6HWmidi20disableRunningStatusEv
                0x00002484        0x6 hardware/midi/MIDI.o
                0x00002484                _ZN6HWmidi20disableRunningStatusEv
 .text._ZN6HWmidi20runningStatusEnabledEv
                0x0000248a        0x6 hardware/midi/MIDI.o
                0x0000248a                _ZN6HWmidi20runningStatusEnabledEv
 .text._ZN6HWmidi11inputFilterEh19midiInterfaceType_t
                0x00002490       0x62 hardware/midi/MIDI.o
                0x00002490                _ZN6HWmidi11inputFilterEh19midiInterfaceType_t
 .text._ZNK6HWmidi7getTypeE19midiInterfaceType_t
                0x000024f2       0x1a hardware/midi/MIDI.o
                0x000024f2                _ZNK6HWmidi7getTypeE19midiInterfaceType_t
 .text._ZNK6HWmidi8getData1E19midiInterfaceType_t
                0x0000250c       0x1a hardware/midi/MIDI.o
                0x0000250c                _ZNK6HWmidi8getData1E19midiInterfaceType_t
 .text._ZNK6HWmidi8getData2E19midiInterfaceType_t
                0x00002526       0x1a hardware/midi/MIDI.o
                0x00002526                _ZNK6HWmidi8getData2E19midiInterfaceType_t
 .text._ZN6HWmidi13getSysExArrayE19midiInterfaceType_t
                0x00002540       0x18 hardware/midi/MIDI.o
                0x00002540                _ZN6HWmidi13getSysExArrayE19midiInterfaceType_t
 .text._ZN6HWmidi19getSysExArrayLengthE19midiInterfaceType_t
                0x00002558       0x36 hardware/midi/MIDI.o
                0x00002558                _ZN6HWmidi19getSysExArrayLengthE19midiInterfaceType_t
 .text._ZN6HWmidi15setInputChannelEh
                0x0000258e        0x6 hardware/midi/MIDI.o
                0x0000258e                _ZN6HWmidi15setInputChannelEh
 .text._ZN6HWmidi21getTypeFromStatusByteEh
                0x00002594       0x2e hardware/midi/MIDI.o
                0x00002594                _ZN6HWmidi21getTypeFromStatusByteEh
 .text._ZN6HWmidi16isChannelMessageE17midiMessageType_t
                0x000025c2       0x2e hardware/midi/MIDI.o
                0x000025c2                _ZN6HWmidi16isChannelMessageE17midiMessageType_t
 .text._ZN6HWmidi5parseE19midiInterfaceType_t
                0x000025f0      0x470 hardware/midi/MIDI.o
                0x000025f0                _ZN6HWmidi5parseE19midiInterfaceType_t
 .text._ZN6HWmidi4readEh19midiInterfaceType_t
                0x00002a60       0x30 hardware/midi/MIDI.o
                0x00002a60                _ZN6HWmidi4readEh19midiInterfaceType_t
 .text._ZN6HWmidi4readE19midiInterfaceType_t
                0x00002a90        0xa hardware/midi/MIDI.o
                0x00002a90                _ZN6HWmidi4readE19midiInterfaceType_t
 .text.EVENT_USB_Device_ConfigurationChanged
                0x00002a9a       0x12 hardware/midi/MIDI.o
                0x00002a9a                EVENT_USB_Device_ConfigurationChanged
 .text._GLOBAL__sub_I_MIDI_Interface
                0x00002aac        0x8 hardware/midi/MIDI.o
 .text._Z15ledStateToValue10ledState_t
                0x00002ab4       0x1c hardware/timer/TimerObject.o
                0x00002ab4                _Z15ledStateToValue10ledState_t
 .text.__vector_21
                0x00002ad0      0x2ba hardware/timer/TimerObject.o
                0x00002ad0                __vector_21
 .text.__vector_32
                0x00002d8a      0x18a hardware/timer/TimerObject.o
                0x00002d8a                __vector_32
 .text._ZN11TimerObject11getLEDstateEh
                0x00002f14       0x48 hardware/timer/TimerObject.o
                0x00002f14                _ZN11TimerObject11getLEDstateEh
 .text._ZN11TimerObject11setLEDstateEh10ledState_t
                0x00002f5c      0x102 hardware/timer/TimerObject.o
                0x00002f5c                _ZN11TimerObject11setLEDstateEh10ledState_t
 .text._ZN11TimerObject4initEv
                0x0000305e      0x25e hardware/timer/TimerObject.o
                0x0000305e                _ZN11TimerObject4initEv
 .text._ZN11TimerObject15getEncoderStateEh
                0x000032bc        0xe hardware/timer/TimerObject.o
                0x000032bc                _ZN11TimerObject15getEncoderStateEh
 .text._ZN11TimerObject11setPWMstepsEh
                0x000032ca        0x6 hardware/timer/TimerObject.o
                0x000032ca                _ZN11TimerObject11setPWMstepsEh
 .text._Z11rTimeMillisv
                0x000032d0       0x18 hardware/timer/TimerObject.o
                0x000032d0                _Z11rTimeMillisv
 .text._Z4waitm
                0x000032e8       0x32 hardware/timer/TimerObject.o
                0x000032e8                _Z4waitm
 .text.__vector_25
                0x0000331a       0x56 hardware/uart/UART.o
                0x0000331a                __vector_25
 .text.__vector_26
                0x00003370       0x6e hardware/uart/UART.o
                0x00003370                __vector_26
 .text.__vector_27
                0x000033de       0x18 hardware/uart/UART.o
                0x000033de                __vector_27
 .text._ZN4UART4readEv
                0x000033f6       0x2c hardware/uart/UART.o
                0x000033f6                _ZN4UART4readEv
 .text._ZN4UART5writeEh
                0x00003422       0x50 hardware/uart/UART.o
                0x00003422                _ZN4UART5writeEh
 .text._ZN4UART5beginEmbb
                0x00003472       0xc6 hardware/uart/UART.o
                0x00003472                _ZN4UART5beginEmbb
 .text._ZN4UART9availableEv
                0x00003538       0x20 hardware/uart/UART.o
                0x00003538                _ZN4UART9availableEv
 .text.MIDI_Device_SendEventPacket
                0x00003558       0x46 hardware/usb/lufa/LUFA/Drivers/USB/Class/Device/MIDIClassDevice.o
                0x00003558                MIDI_Device_SendEventPacket
 .text.MIDI_Device_Flush
                0x0000359e       0x34 hardware/usb/lufa/LUFA/Drivers/USB/Class/Device/MIDIClassDevice.o
                0x0000359e                MIDI_Device_Flush
 .text.Endpoint_Write_Stream_LE
                0x000035d2       0xb8 hardware/usb/lufa/LUFA/Drivers/USB/Core/AVR8/EndpointStream_AVR8.o
                0x000035d2                Endpoint_Write_Stream_LE
 .text.Endpoint_Read_Stream_LE
                0x0000368a       0xb8 hardware/usb/lufa/LUFA/Drivers/USB/Core/AVR8/EndpointStream_AVR8.o
                0x0000368a                Endpoint_Read_Stream_LE
 .text.Endpoint_Write_Control_Stream_LE
                0x00003742       0xfe hardware/usb/lufa/LUFA/Drivers/USB/Core/AVR8/EndpointStream_AVR8.o
                0x00003742                Endpoint_Write_Control_Stream_LE
 .text.Endpoint_Write_Control_PStream_LE
                0x00003840      0x100 hardware/usb/lufa/LUFA/Drivers/USB/Core/AVR8/EndpointStream_AVR8.o
                0x00003840                Endpoint_Write_Control_PStream_LE
 .text.Endpoint_ConfigureEndpoint_Prv
                0x00003940       0xcc hardware/usb/lufa/LUFA/Drivers/USB/Core/AVR8/Endpoint_AVR8.o
                0x00003940                Endpoint_ConfigureEndpoint_Prv
 .text.Endpoint_ClearStatusStage
                0x00003a0c       0x48 hardware/usb/lufa/LUFA/Drivers/USB/Core/AVR8/Endpoint_AVR8.o
                0x00003a0c                Endpoint_ClearStatusStage
 .text.Endpoint_WaitUntilReady
                0x00003a54       0x82 hardware/usb/lufa/LUFA/Drivers/USB/Core/AVR8/Endpoint_AVR8.o
                0x00003a54                Endpoint_WaitUntilReady
 .text.USB_ResetInterface
                0x00003ad6       0x8a hardware/usb/lufa/LUFA/Drivers/USB/Core/AVR8/USBController_AVR8.o
                0x00003ad6                USB_ResetInterface
 .text.USB_Init
                0x00003b60       0x1e hardware/usb/lufa/LUFA/Drivers/USB/Core/AVR8/USBController_AVR8.o
                0x00003b60                USB_Init
 .text.USB_INT_DisableAllInterrupts
                0x00003b7e       0x10 hardware/usb/lufa/LUFA/Drivers/USB/Core/AVR8/USBInterrupt_AVR8.o
                0x00003b7e                USB_INT_DisableAllInterrupts
 .text.USB_INT_ClearAllInterrupts
                0x00003b8e        0xa hardware/usb/lufa/LUFA/Drivers/USB/Core/AVR8/USBInterrupt_AVR8.o
                0x00003b8e                USB_INT_ClearAllInterrupts
 .text.__vector_10
                0x00003b98      0x192 hardware/usb/lufa/LUFA/Drivers/USB/Core/AVR8/USBInterrupt_AVR8.o
                0x00003b98                __vector_10
 .text.__vector_11
                0x00003d2a       0xa8 hardware/usb/lufa/LUFA/Drivers/USB/Core/AVR8/USBInterrupt_AVR8.o
                0x00003d2a                __vector_11
 .text.USB_Device_ProcessControlRequest
                0x00003dd2      0x2ca hardware/usb/lufa/LUFA/Drivers/USB/Core/DeviceStandardReq.o
                0x00003dd2                USB_Device_ProcessControlRequest
 .text.USB_Event_Stub
                0x0000409c        0x2 hardware/usb/lufa/LUFA/Drivers/USB/Core/Events.o
                0x0000409c                EVENT_USB_Device_WakeUp
                0x0000409c                USB_Event_Stub
                0x0000409c                EVENT_USB_Device_Suspend
                0x0000409c                EVENT_USB_Device_StartOfFrame
                0x0000409c                EVENT_USB_Device_Disconnect
                0x0000409c                EVENT_USB_Device_Reset
                0x0000409c                EVENT_USB_Device_ControlRequest
                0x0000409c                EVENT_USB_Device_Connect
 .text.CALLBACK_USB_GetDescriptor
                0x0000409e       0x7a hardware/usb/midi/Descriptors.o
                0x0000409e                CALLBACK_USB_GetDescriptor
 .text._Z16startUpAnimationv
                0x00004118       0xca init/Init.o
                0x00004118                _Z16startUpAnimationv
 .text._Z10globalInitv
                0x000041e2       0xa4 init/Init.o
                0x000041e2                _Z10globalInitv
 .text._Z6rebootv
                0x00004286       0x16 init/Init.o
                0x00004286                _Z6rebootv
 .text._ZN7Buttons18getTonicFromButtonEh
                0x0000429c       0x48 interface/buttons/Buttons.o
                0x0000429c                _ZN7Buttons18getTonicFromButtonEh
 .text._ZN7Buttons16handleOnOffEventEhb
                0x000042e4      0x160 interface/buttons/Buttons.o
                0x000042e4                _ZN7Buttons16handleOnOffEventEhb
 .text._ZN7Buttons27handleTransportControlEventEhb
                0x00004444       0xe0 interface/buttons/Buttons.o
                0x00004444                _ZN7Buttons27handleTransportControlEventEhb
 .text._ZN7Buttons16handleTonicEventE6note_tb
                0x00004524       0x80 interface/buttons/Buttons.o
                0x00004524                _ZN7Buttons16handleTonicEventE6note_tb
 .text._ZN7Buttons17handleOctaveEventEbb
                0x000045a4      0x2ba interface/buttons/Buttons.o
                0x000045a4                _ZN7Buttons17handleOctaveEventEbb
 .text._GLOBAL__sub_I__ZN7Buttons18getTonicFromButtonEh
                0x0000485e        0x8 interface/buttons/Buttons.o
 .text._ZN7Buttons16mapButtonsToLEDsEv
                0x00004866       0x5c interface/buttons/Map.o
                0x00004866                _ZN7Buttons16mapButtonsToLEDsEv
 .text._ZN7Buttons22getLEDnumberFromButtonEh
                0x000048c2        0xc interface/buttons/Map.o
                0x000048c2                _ZN7Buttons22getLEDnumberFromButtonEh
 .text._ZN7ButtonsC2Ev
                0x000048ce       0x42 interface/buttons/UpdateLogic.o
                0x000048ce                _ZN7ButtonsC2Ev
                0x000048ce                _ZN7ButtonsC1Ev
 .text._Z12read_I2C_reghh
                0x00004910       0x34 interface/buttons/UpdateLogic.o
                0x00004910                _Z12read_I2C_reghh
 .text._Z13write_I2C_reghhh
                0x00004944       0x24 interface/buttons/UpdateLogic.o
                0x00004944                _Z13write_I2C_reghhh
 .text._ZN7Buttons14getButtonStateEh
                0x00004968       0x1c interface/buttons/UpdateLogic.o
                0x00004968                _ZN7Buttons14getButtonStateEh
 .text._ZN7Buttons10readStatesEv
                0x00004984       0x9e interface/buttons/UpdateLogic.o
                0x00004984                _ZN7Buttons10readStatesEv
 .text._ZN7Buttons15buttonDebouncedEhh
                0x00004a22       0x22 interface/buttons/UpdateLogic.o
                0x00004a22                _ZN7Buttons15buttonDebouncedEhh
 .text._ZN7Buttons13processButtonEhb
                0x00004a44       0xd4 interface/buttons/UpdateLogic.o
                0x00004a44                _ZN7Buttons13processButtonEhb
 .text._ZN7Buttons14setButtonStateEhh
                0x00004b18       0x7a interface/buttons/UpdateLogic.o
                0x00004b18                _ZN7Buttons14setButtonStateEhh
 .text._ZN7Buttons6updateEv
                0x00004b92      0x1b2 interface/buttons/UpdateLogic.o
                0x00004b92                _ZN7Buttons6updateEv
 .text._ZN7Buttons4initEv
                0x00004d44       0xe2 interface/buttons/UpdateLogic.o
                0x00004d44                _ZN7Buttons4initEv
 .text._ZN7Buttons6enableEa
                0x00004e26       0x20 interface/buttons/UpdateLogic.o
                0x00004e26                _ZN7Buttons6enableEa
 .text._ZN7Buttons7disableEa
                0x00004e46       0x1c interface/buttons/UpdateLogic.o
                0x00004e46                _ZN7Buttons7disableEa
 .text._ZN8EncodersC2Ev
                0x00004e62       0x14 interface/encoders/Encoders.o
                0x00004e62                _ZN8EncodersC1Ev
                0x00004e62                _ZN8EncodersC2Ev
 .text._ZN8Encoders13handleEncoderEhbh
                0x00004e76      0x2d6 interface/encoders/Encoders.o
                0x00004e76                _ZN8Encoders13handleEncoderEhbh
 .text._ZN8Encoders6updateEb
                0x0000514c       0xee interface/encoders/Encoders.o
                0x0000514c                _ZN8Encoders6updateEb
 .text._ZN8Encoders5flushEv
                0x0000523a        0x6 interface/encoders/Encoders.o
                0x0000523a                _ZN8Encoders5flushEv
 .text._GLOBAL__sub_I__ZN8EncodersC2Ev
                0x00005240        0x8 interface/encoders/Encoders.o
 .text._ZN3LCD14setupLCDlayoutEv
                0x00005248       0x90 interface/lcd/Layout.o
                0x00005248                _ZN3LCD14setupLCDlayoutEv
 .text._Z12factoryReset16functionArgument
                0x000052d8      0x1b4 interface/lcd/menu/functions/MenuFunctions.o
                0x000052d8                _Z12factoryReset16functionArgument
 .text._Z10deviceInfo16functionArgument
                0x0000548c        0xc interface/lcd/menu/functions/MenuFunctions.o
                0x0000548c                _Z10deviceInfo16functionArgument
 .text._Z17enableCalibration16functionArgument
                0x00005498       0x36 interface/lcd/menu/functions/MenuFunctions.o
                0x00005498                _Z17enableCalibration16functionArgument
 .text._Z16checkCalibration16functionArgument
                0x000054ce       0x26 interface/lcd/menu/functions/MenuFunctions.o
                0x000054ce                _Z16checkCalibration16functionArgument
 .text._Z19checkAftertouchType16functionArgument
                0x000054f4       0x3c interface/lcd/menu/functions/MenuFunctions.o
                0x000054f4                _Z19checkAftertouchType16functionArgument
 .text._Z18checkRunningStatus16functionArgument
                0x00005530       0x42 interface/lcd/menu/functions/MenuFunctions.o
                0x00005530                _Z18checkRunningStatus16functionArgument
 .text._Z18checkNoteOffStatus16functionArgument
                0x00005572       0x3c interface/lcd/menu/functions/MenuFunctions.o
                0x00005572                _Z18checkNoteOffStatus16functionArgument
 .text._ZN4Menu23createServiceMenuLayoutEv
                0x000055ae       0xca interface/lcd/menu/layout/ServiceMenu.o
                0x000055ae                _ZN4Menu23createServiceMenuLayoutEv
 .text._ZN4Menu20createUserMenuLayoutEv
                0x00005678      0x27c interface/lcd/menu/layout/UserMenu.o
                0x00005678                _ZN4Menu20createUserMenuLayoutEv
 .text._ZN4MenuC2Ev
                0x000058f4       0x2a interface/lcd/menu/Menu.o
                0x000058f4                _ZN4MenuC2Ev
                0x000058f4                _ZN4MenuC1Ev
 .text._ZN4Menu4initEv
                0x0000591e        0x2 interface/lcd/menu/Menu.o
                0x0000591e                _ZN4Menu4initEv
 .text._ZN4Menu12setMenuTitleEb
                0x00005920      0x14a interface/lcd/menu/Menu.o
                0x00005920                _ZN4Menu12setMenuTitleEb
 .text._ZN4Menu11getMenuSizeEv
                0x00005a6a       0x1c interface/lcd/menu/Menu.o
                0x00005a6a                _ZN4Menu11getMenuSizeEv
 .text._ZN4Menu12getMenuItemsEv
                0x00005a86      0x1b6 interface/lcd/menu/Menu.o
                0x00005a86                _ZN4Menu12getMenuItemsEv
 .text._ZN4Menu16updateMenuScreenEv
                0x00005c3c      0x2a6 interface/lcd/menu/Menu.o
                0x00005c3c                _ZN4Menu16updateMenuScreenEv
 .text._ZN4Menu11displayMenuE10menuType_t
                0x00005ee2       0x52 interface/lcd/menu/Menu.o
                0x00005ee2                _ZN4Menu11displayMenuE10menuType_t
 .text._ZN4Menu12changeOptionEb
                0x00005f34       0x94 interface/lcd/menu/Menu.o
                0x00005f34                _ZN4Menu12changeOptionEb
 .text._ZN4Menu8exitMenuEv
                0x00005fc8       0x56 interface/lcd/menu/Menu.o
                0x00005fc8                _ZN4Menu8exitMenuEv
 .text._ZN4Menu13menuDisplayedEv
                0x0000601e       0x12 interface/lcd/menu/Menu.o
                0x0000601e                _ZN4Menu13menuDisplayedEv
 .text._ZN4Menu13confirmOptionEb
                0x00006030      0x33c interface/lcd/menu/Menu.o
                0x00006030                _ZN4Menu13confirmOptionEb
 .text._ZN4Menu12stopFunctionEv
                0x0000636c        0xa interface/lcd/menu/Menu.o
                0x0000636c                _ZN4Menu12stopFunctionEv
 .text._GLOBAL__sub_I__ZN4MenuC2Ev
                0x00006376        0x8 interface/lcd/menu/Menu.o
 .text._ZN3LCD16displayPadAmountEbh
                0x0000637e       0xfc interface/lcd/MessageBuilder.o
                0x0000637e                _ZN3LCD16displayPadAmountEbh
 .text._ZN3LCD19displayHelloMessageEv
                0x0000647a       0x58 interface/lcd/MessageBuilder.o
                0x0000647a                _ZN3LCD19displayHelloMessageEv
 .text._ZN3LCD17displayOutOfRangeEv
                0x000064d2       0x46 interface/lcd/MessageBuilder.o
                0x000064d2                _ZN3LCD17displayOutOfRangeEv
 .text._ZN3LCD24displayMIDIchannelChangeEhbh
                0x00006518       0xd0 interface/lcd/MessageBuilder.o
                0x00006518                _ZN3LCD24displayMIDIchannelChangeEhbh
 .text._ZN3LCD15displayCCchangeE16coordinateType_tbhh
                0x000065e8       0xe6 interface/lcd/MessageBuilder.o
                0x000065e8                _ZN3LCD15displayCCchangeE16coordinateType_tbhh
 .text._ZN3LCD18displayCurveChangeE16coordinateType_tbah
                0x000066ce      0x170 interface/lcd/MessageBuilder.o
                0x000066ce                _ZN3LCD18displayCurveChangeE16coordinateType_tbah
 .text._ZN3LCD20displayCClimitChangeE16coordinateType_t13ccLimitType_tbhh
                0x0000683e      0x132 interface/lcd/MessageBuilder.o
                0x0000683e                _ZN3LCD20displayCClimitChangeE16coordinateType_t13ccLimitType_tbhh
 .text._ZN3LCD12displayOnOffE7onOff_tbhh
                0x00006970       0x88 interface/lcd/MessageBuilder.o
                0x00006970                _ZN3LCD12displayOnOffE7onOff_tbhh
 .text._ZN3LCD17displayNoteChangeE14changeOutput_t16noteChangeType_ta
                0x000069f8      0x276 interface/lcd/MessageBuilder.o
                0x000069f8                _ZN3LCD17displayNoteChangeE14changeOutput_t16noteChangeType_ta
 .text._ZN3LCD23displayTransportControlE18transportControl_t
                0x00006c6e       0xa8 interface/lcd/MessageBuilder.o
                0x00006c6e                _ZN3LCD23displayTransportControlE18transportControl_t
 .text._ZN3LCD18displayMaxNotesSetEv
                0x00006d16       0x46 interface/lcd/MessageBuilder.o
                0x00006d16                _ZN3LCD18displayMaxNotesSetEv
 .text._ZN3LCD22displayPadReleaseErrorE17padReleaseError_t
                0x00006d5c       0xbe interface/lcd/MessageBuilder.o
                0x00006d5c                _ZN3LCD22displayPadReleaseErrorE17padReleaseError_t
 .text._ZN3LCD25displayEditModeNotAllowedE19padEditModeResult_t
                0x00006e1a       0x56 interface/lcd/MessageBuilder.o
                0x00006e1a                _ZN3LCD25displayEditModeNotAllowedE19padEditModeResult_t
 .text._ZN3LCD35displayPadEditChangeParametersErrorEv
                0x00006e70       0x46 interface/lcd/MessageBuilder.o
                0x00006e70                _ZN3LCD35displayPadEditChangeParametersErrorEv
 .text._ZN3LCD22displayFirmwareUpdatedEv
                0x00006eb6      0x296 interface/lcd/MessageBuilder.o
                0x00006eb6                _ZN3LCD22displayFirmwareUpdatedEv
 .text._ZN3LCD22displayProgramAndScaleEhh
                0x0000714c      0x248 interface/lcd/MessageBuilder.o
                0x0000714c                _ZN3LCD22displayProgramAndScaleEhh
 .text._ZN3LCD15displayVelocityEh
                0x00007394      0x11e interface/lcd/MessageBuilder.o
                0x00007394                _ZN3LCD15displayVelocityEh
 .text._ZN3LCD17displayAftertouchEh
                0x000074b2      0x11e interface/lcd/MessageBuilder.o
                0x000074b2                _ZN3LCD17displayAftertouchEh
 .text._ZN3LCD17displayXYpositionEh16coordinateType_t
                0x000075d0      0x14a interface/lcd/MessageBuilder.o
                0x000075d0                _ZN3LCD17displayXYpositionEh16coordinateType_t
 .text._ZN3LCD11displayXYccEh16coordinateType_t
                0x0000771a      0x14a interface/lcd/MessageBuilder.o
                0x0000771a                _ZN3LCD11displayXYccEh16coordinateType_t
 .text._ZN3LCD21displayActivePadNotesEPhPahb
                0x00007864      0x2cc interface/lcd/MessageBuilder.o
                0x00007864                _ZN3LCD21displayActivePadNotesEPhPahb
 .text._ZN3LCD19displayActiveOctaveEa
                0x00007b30       0xd6 interface/lcd/MessageBuilder.o
                0x00007b30                _ZN3LCD19displayActiveOctaveEa
 .text._ZN3LCD18displayPadEditModeEh
                0x00007c06       0xf8 interface/lcd/MessageBuilder.o
                0x00007c06                _ZN3LCD18displayPadEditModeEh
 .text._ZN3LCD10displayPadEh
                0x00007cfe       0xc2 interface/lcd/MessageBuilder.o
                0x00007cfe                _ZN3LCD10displayPadEh
 .text._ZN3LCD18displayMIDIchannelEh
                0x00007dc0       0xf8 interface/lcd/MessageBuilder.o
                0x00007dc0                _ZN3LCD18displayMIDIchannelEh
 .text._ZN3LCD15clearAftertouchEv
                0x00007eb8       0x36 interface/lcd/MessageBuilder.o
                0x00007eb8                _ZN3LCD15clearAftertouchEv
 .text._ZN3LCD15clearXYpositionE16coordinateType_t
                0x00007eee       0x62 interface/lcd/MessageBuilder.o
                0x00007eee                _ZN3LCD15clearXYpositionE16coordinateType_t
 .text._ZN3LCD9clearXYccE16coordinateType_t
                0x00007f50       0x62 interface/lcd/MessageBuilder.o
                0x00007f50                _ZN3LCD9clearXYccE16coordinateType_t
 .text._ZN3LCD16clearPadEditModeEv
                0x00007fb2       0x4a interface/lcd/MessageBuilder.o
                0x00007fb2                _ZN3LCD16clearPadEditModeEv
 .text._ZN3LCD12clearPadDataEv
                0x00007ffc       0x4a interface/lcd/MessageBuilder.o
                0x00007ffc                _ZN3LCD12clearPadDataEv
 .text._ZN3LCD9clearLineEh
                0x00008046       0x34 interface/lcd/MessageBuilder.o
                0x00008046                _ZN3LCD9clearLineEh
 .text._ZN3LCD17displayDeviceInfoEv
                0x0000807a      0x32e interface/lcd/MessageBuilder.o
                0x0000807a                _ZN3LCD17displayDeviceInfoEv
 .text._ZN3LCD26displayFactoryResetWarningEv
                0x000083a8       0xa0 interface/lcd/MessageBuilder.o
                0x000083a8                _ZN3LCD26displayFactoryResetWarningEv
 .text._ZN3LCD21displayNoteShiftLevelEa
                0x00008448       0xd6 interface/lcd/MessageBuilder.o
                0x00008448                _ZN3LCD21displayNoteShiftLevelEa
 .text._ZN3LCD13updateDisplayEh11lcdTextTypehbhb
                0x0000851e       0x34 interface/lcd/MessageBuilder.o
                0x0000851e                _ZN3LCD13updateDisplayEh11lcdTextTypehbhb
 .text._ZN3LCDC2Ev
                0x00008552       0x2a interface/lcd/UpdateLogic.o
                0x00008552                _ZN3LCDC1Ev
                0x00008552                _ZN3LCDC2Ev
 .text._ZN3LCD4initEv
                0x0000857c       0xb6 interface/lcd/UpdateLogic.o
                0x0000857c                _ZN3LCD4initEv
 .text._ZN3LCD16getMessageStatusEv
                0x00008632       0xb2 interface/lcd/UpdateLogic.o
                0x00008632                _ZN3LCD16getMessageStatusEv
 .text._ZN3LCD11checkScrollEh
                0x000086e4      0x1ca interface/lcd/UpdateLogic.o
                0x000086e4                _ZN3LCD11checkScrollEh
 .text._ZN3LCD6updateEv
                0x000088ae      0x22a interface/lcd/UpdateLogic.o
                0x000088ae                _ZN3LCD6updateEv
 .text._ZN3LCD14displayMessageEhPKc
                0x00008ad8       0x38 interface/lcd/UpdateLogic.o
                0x00008ad8                _ZN3LCD14displayMessageEhPKc
 .text._ZN3LCD11displayTextEhPKchbb
                0x00008b10      0x16a interface/lcd/UpdateLogic.o
                0x00008b10                _ZN3LCD11displayTextEhPKchbb
 .text._ZN3LCD14setScrollStartEhh
                0x00008c7a        0xe interface/lcd/UpdateLogic.o
                0x00008c7a                _ZN3LCD14setScrollStartEhh
 .text._GLOBAL__sub_I__ZN3LCDC2Ev
                0x00008c88        0x8 interface/lcd/UpdateLogic.o
 .text._ZN4LEDs4initEv
                0x00008c90       0x1a interface/leds/LEDs.o
                0x00008c90                _ZN4LEDs4initEv
 .text._ZN4LEDs10allLEDsOffEv
                0x00008caa       0x1a interface/leds/LEDs.o
                0x00008caa                _ZN4LEDs10allLEDsOffEv
 .text._ZN4LEDs9allLEDsOnEv
                0x00008cc4       0x1a interface/leds/LEDs.o
                0x00008cc4                _ZN4LEDs9allLEDsOnEv
 .text._ZN4LEDs11setLEDstateEh10ledState_t
                0x00008cde        0xa interface/leds/LEDs.o
                0x00008cde                _ZN4LEDs11setLEDstateEh10ledState_t
 .text._ZN4LEDs11getLEDstateEh
                0x00008ce8        0xa interface/leds/LEDs.o
                0x00008ce8                _ZN4LEDs11getLEDstateEh
 .text._ZN4LEDs12setFadeSpeedEh
                0x00008cf2        0xa interface/leds/LEDs.o
                0x00008cf2                _ZN4LEDs12setFadeSpeedEh
 .text._ZN4LEDs12tonicLEDsOffEv
                0x00008cfc       0x2c interface/leds/LEDs.o
                0x00008cfc                _ZN4LEDs12tonicLEDsOffEv
 .text._ZN4LEDs15setNoteLEDstateE6note_t10ledState_t
                0x00008d28       0x14 interface/leds/LEDs.o
                0x00008d28                _ZN4LEDs15setNoteLEDstateE6note_t10ledState_t
 .text._ZN4LEDs21displayActiveNoteLEDsEbh
                0x00008d3c      0x142 interface/leds/LEDs.o
                0x00008d3c                _ZN4LEDs21displayActiveNoteLEDsEbh
 .text._Z4biasdd
                0x00008e7e       0x32 interface/pads/curves/Curves.o
                0x00008e7e                _Z4biasdd
 .text._Z4gaindd
                0x00008eb0       0xc4 interface/pads/curves/Curves.o
                0x00008eb0                _Z4gaindd
 .text._ZN6CurvesC2Ev
                0x00008f74       0x32 interface/pads/curves/Curves.o
                0x00008f74                _ZN6CurvesC2Ev
                0x00008f74                _ZN6CurvesC1Ev
 .text._ZN6Curves10setupCurveEhhh
                0x00008fa6      0x28c interface/pads/curves/Curves.o
                0x00008fa6                _ZN6Curves10setupCurveEhhh
 .text._ZN6Curves13getCurveValueE16coordinateType_thhhh
                0x00009232       0xd0 interface/pads/curves/Curves.o
                0x00009232                _ZN6Curves13getCurveValueE16coordinateType_thhhh
 .text._GLOBAL__sub_I__Z4biasdd
                0x00009302        0x8 interface/pads/curves/Curves.o
 .text._ZN4Pads5sendXEh
                0x0000930a       0x2a interface/pads/DataOutput.o
                0x0000930a                _ZN4Pads5sendXEh
 .text._ZN4Pads5sendYEh
                0x00009334       0x2a interface/pads/DataOutput.o
                0x00009334                _ZN4Pads5sendYEh
 .text._ZN4Pads14sendAftertouchEh
                0x0000935e       0xf2 interface/pads/DataOutput.o
                0x0000935e                _ZN4Pads14sendAftertouchEh
 .text._ZN4Pads14handleNoteLEDsEhb
                0x00009450      0x186 interface/pads/DataOutput.o
                0x00009450                _ZN4Pads14handleNoteLEDsEhb
 .text._ZN4Pads9sendNotesEhhb
                0x000095d6      0x19a interface/pads/DataOutput.o
                0x000095d6                _ZN4Pads9sendNotesEhhb
 .text._ZN4Pads13handleNoteLCDEhhb
                0x00009770      0x184 interface/pads/DataOutput.o
                0x00009770                _ZN4Pads13handleNoteLCDEhhb
 .text._ZN4Pads17getMedianValueXYZE16coordinateType_t
                0x000098f4      0x128 interface/pads/DataProcessing.o
                0x000098f4                _ZN4Pads17getMedianValueXYZE16coordinateType_t
 .text._ZN4Pads6checkXEh
                0x00009a1c      0x15a interface/pads/DataProcessing.o
                0x00009a1c                _ZN4Pads6checkXEh
 .text._ZN4Pads6checkYEh
                0x00009b76      0x15e interface/pads/DataProcessing.o
                0x00009b76                _ZN4Pads6checkYEh
 .text._ZN4Pads15checkAftertouchEhb
                0x00009cd4      0x2d0 interface/pads/DataProcessing.o
                0x00009cd4                _ZN4Pads15checkAftertouchEhb
 .text._ZN4Pads9xyUpdatedEh
                0x00009fa4      0x1ae interface/pads/DataProcessing.o
                0x00009fa4                _ZN4Pads9xyUpdatedEh
 .text._ZN4Pads14pressureStableEhb
                0x0000a152      0x124 interface/pads/DataProcessing.o
                0x0000a152                _ZN4Pads14pressureStableEhb
 .text._ZN4Pads15pressureUpdatedEv
                0x0000a276       0x52 interface/pads/DataProcessing.o
                0x0000a276                _ZN4Pads15pressureUpdatedEv
 .text._ZN4Pads13checkVelocityEh
                0x0000a2c8      0x12e interface/pads/DataProcessing.o
                0x0000a2c8                _ZN4Pads13checkVelocityEh
 .text._ZN4Pads15checkNoteBufferEv
                0x0000a3f6       0xb4 interface/pads/DataProcessing.o
                0x0000a3f6                _ZN4Pads15checkNoteBufferEv
 .text._ZN4Pads12checkLCDdataEhbbbb
                0x0000a4aa      0x1fe interface/pads/DataProcessing.o
                0x0000a4aa                _ZN4Pads12checkLCDdataEhbbbb
 .text._ZN4Pads18updatePressHistoryEh
                0x0000a6a8       0x70 interface/pads/DataProcessing.o
                0x0000a6a8                _ZN4Pads18updatePressHistoryEh
 .text._ZN4Pads20clearTouchHistoryPadEh
                0x0000a718      0x108 interface/pads/DataProcessing.o
                0x0000a718                _ZN4Pads20clearTouchHistoryPadEh
 .text._ZN4Pads20updateLastPressedPadEhb
                0x0000a820       0x2e interface/pads/DataProcessing.o
                0x0000a820                _ZN4Pads20updateLastPressedPadEhb
 .text._ZN4Pads10storeNotesEh
                0x0000a84e       0x88 interface/pads/DataProcessing.o
                0x0000a84e                _ZN4Pads10storeNotesEh
 .text._ZN4Pads13checkMIDIdataEhbbbb
                0x0000a8d6       0xb8 interface/pads/DataProcessing.o
                0x0000a8d6                _ZN4Pads13checkMIDIdataEhbbbb
 .text._ZN4Pads6updateEv
                0x0000a98e      0x240 interface/pads/DataProcessing.o
                0x0000a98e                _ZN4Pads6updateEv
 .text._ZN4Pads21displayActivePadNotesEh
                0x0000abce       0xcc interface/pads/EditMode.o
                0x0000abce                _ZN4Pads21displayActivePadNotesEh
 .text._ZN4Pads16setupPadEditModeEh
                0x0000ac9a       0x42 interface/pads/EditMode.o
                0x0000ac9a                _ZN4Pads16setupPadEditModeEh
 .text._ZN4Pads15exitPadEditModeEv
                0x0000acdc       0x3c interface/pads/EditMode.o
                0x0000acdc                _ZN4Pads15exitPadEditModeEv
 .text._ZN4Pads14editModeActiveEv
                0x0000ad18        0x6 interface/pads/EditMode.o
                0x0000ad18                _ZN4Pads14editModeActiveEv
 .text._ZN4Pads11setEditModeEb
                0x0000ad1e        0x6 interface/pads/EditMode.o
                0x0000ad1e                _ZN4Pads11setEditModeEb
 .text._ZN4Pads16getPadParametersEv
                0x0000ad24     0x155e interface/pads/Getters.o
                0x0000ad24                _ZN4Pads16getPadParametersEv
 .text._ZN4Pads13generateScaleE7scale_t
                0x0000c282      0x496 interface/pads/Getters.o
                0x0000c282                _ZN4Pads13generateScaleE7scale_t
 .text._ZN4Pads18getScaleParametersEv
                0x0000c718       0x7e interface/pads/Getters.o
                0x0000c718                _ZN4Pads18getScaleParametersEv
 .text._ZN4Pads20getProgramParametersEv
                0x0000c796      0x11e interface/pads/Getters.o
                0x0000c796                _ZN4Pads20getProgramParametersEv
 .text._ZN4Pads17getPressureLimitsEv
                0x0000c8b4      0x1d2 interface/pads/Getters.o
                0x0000c8b4                _ZN4Pads17getPressureLimitsEv
 .text._ZN4Pads10getXLimitsEv
                0x0000ca86      0x1d2 interface/pads/Getters.o
                0x0000ca86                _ZN4Pads10getXLimitsEv
 .text._ZN4Pads10getYLimitsEv
                0x0000cc58      0x1d2 interface/pads/Getters.o
                0x0000cc58                _ZN4Pads10getYLimitsEv
 .text._ZN4Pads19getAftertouchLimitsEv
                0x0000ce2a       0xba interface/pads/Getters.o
                0x0000ce2a                _ZN4Pads19getAftertouchLimitsEv
 .text._ZN4Pads12getPadLimitsEv
                0x0000cee4       0x1a interface/pads/Getters.o
                0x0000cee4                _ZN4Pads12getPadLimitsEv
 .text._ZN4Pads16getConfigurationEv
                0x0000cefe       0x7a interface/pads/Getters.o
                0x0000cefe                _ZN4Pads16getConfigurationEv
 .text._ZN4Pads16getMIDISendStateE7onOff_th
                0x0000cf78       0x4c interface/pads/Getters.o
                0x0000cf78                _ZN4Pads16getMIDISendStateE7onOff_th
 .text._ZN4Pads17getAftertouchTypeEv
                0x0000cfc4        0xa interface/pads/Getters.o
                0x0000cfc4                _ZN4Pads17getAftertouchTypeEv
 .text._ZN4Pads13getSplitStateEv
                0x0000cfce        0xa interface/pads/Getters.o
                0x0000cfce                _ZN4Pads13getSplitStateEv
 .text._ZN4Pads16getActiveProgramEv
                0x0000cfd8        0xa interface/pads/Getters.o
                0x0000cfd8                _ZN4Pads16getActiveProgramEv
 .text._ZN4Pads14getActiveScaleEv
                0x0000cfe2        0xa interface/pads/Getters.o
                0x0000cfe2                _ZN4Pads14getActiveScaleEv
 .text._ZN4Pads10getCCcurveE16coordinateType_th
                0x0000cfec       0x2a interface/pads/Getters.o
                0x0000cfec                _ZN4Pads10getCCcurveE16coordinateType_th
 .text._ZN4Pads15getCClimitValueE16coordinateType_t13ccLimitType_th
                0x0000d016       0x4e interface/pads/Getters.o
                0x0000d016                _ZN4Pads15getCClimitValueE16coordinateType_t13ccLimitType_th
 .text._ZN4Pads10getCCvalueE16coordinateType_th
                0x0000d064       0x2a interface/pads/Getters.o
                0x0000d064                _ZN4Pads10getCCvalueE16coordinateType_th
 .text._ZN4Pads14getMIDIchannelEh
                0x0000d08e        0xe interface/pads/Getters.o
                0x0000d08e                _ZN4Pads14getMIDIchannelEh
 .text._ZN4Pads15getActiveOctaveEv
                0x0000d09c        0xa interface/pads/Getters.o
                0x0000d09c                _ZN4Pads15getActiveOctaveEv
 .text._ZN4Pads14getActiveTonicEv
                0x0000d0a6      0x126 interface/pads/Getters.o
                0x0000d0a6                _ZN4Pads14getActiveTonicEv
 .text._ZN4Pads12getScaleTypeEa
                0x0000d1cc       0x18 interface/pads/Getters.o
                0x0000d1cc                _ZN4Pads12getScaleTypeEa
 .text._ZN4Pads11isUserScaleEh
                0x0000d1e4        0xa interface/pads/Getters.o
                0x0000d1e4                _ZN4Pads11isUserScaleEh
 .text._ZN4Pads17isPredefinedScaleEh
                0x0000d1ee        0xa interface/pads/Getters.o
                0x0000d1ee                _ZN4Pads17isPredefinedScaleEh
 .text._ZN4Pads10getPadNoteEhh
                0x0000d1f8       0x28 interface/pads/Getters.o
                0x0000d1f8                _ZN4Pads10getPadNoteEhh
 .text._ZN4Pads10noteActiveE6note_t
                0x0000d220       0x50 interface/pads/Getters.o
                0x0000d220                _ZN4Pads10noteActiveE6note_t
 .text._ZN4Pads17getLastTouchedPadEv
                0x0000d270       0x16 interface/pads/Getters.o
                0x0000d270                _ZN4Pads17getLastTouchedPadEv
 .text._ZN4Pads16getTonicFromNoteEh
                0x0000d286       0x26 interface/pads/Getters.o
                0x0000d286                _ZN4Pads16getTonicFromNoteEh
 .text._ZN4Pads17getOctaveFromNoteEh
                0x0000d2ac       0x18 interface/pads/Getters.o
                0x0000d2ac                _ZN4Pads17getOctaveFromNoteEh
 .text._ZN4Pads12isPadPressedEh
                0x0000d2c4       0x18 interface/pads/Getters.o
                0x0000d2c4                _ZN4Pads12isPadPressedEh
 .text._ZN4Pads15allPadsReleasedEv
                0x0000d2dc       0x38 interface/pads/Getters.o
                0x0000d2dc                _ZN4Pads15allPadsReleasedEv
 .text._ZN4Pads11initPadPinsEv
                0x0000d314       0x22 interface/pads/HardwareControl.o
                0x0000d314                _ZN4Pads11initPadPinsEv
 .text._ZN4Pads11setMuxInputEh
                0x0000d336       0x30 interface/pads/HardwareControl.o
                0x0000d336                _ZN4Pads11setMuxInputEh
 .text._ZN4Pads12initHardwareEv
                0x0000d366       0x24 interface/pads/HardwareControl.o
                0x0000d366                _ZN4Pads12initHardwareEv
 .text._ZN4Pads13setupPressureEv
                0x0000d38a       0x18 interface/pads/HardwareControl.o
                0x0000d38a                _ZN4Pads13setupPressureEv
 .text._ZN4Pads6setupXEv
                0x0000d3a2       0x20 interface/pads/HardwareControl.o
                0x0000d3a2                _ZN4Pads6setupXEv
 .text._ZN4Pads6setupYEv
                0x0000d3c2       0x20 interface/pads/HardwareControl.o
                0x0000d3c2                _ZN4Pads6setupYEv
 .text._ZN4Pads11getPressureEv
                0x0000d3e2       0xec interface/pads/HardwareControl.o
                0x0000d3e2                _ZN4Pads11getPressureEv
 .text._ZN4Pads4getXEv
                0x0000d4ce       0x3e interface/pads/HardwareControl.o
                0x0000d4ce                _ZN4Pads4getXEv
 .text._ZN4Pads4getYEv
                0x0000d50c       0x3e interface/pads/HardwareControl.o
                0x0000d50c                _ZN4Pads4getYEv
 .text._ZN4Pads10setNextPadEv
                0x0000d54a       0x20 interface/pads/HardwareControl.o
                0x0000d54a                _ZN4Pads10setNextPadEv
 .text._GLOBAL__sub_I_adcPinReadOrder
                0x0000d56a       0x12 interface/pads/HardwareControl.o
 .text._ZN4PadsC2Ev
                0x0000d57c       0xf2 interface/pads/Pads.o
                0x0000d57c                _ZN4PadsC2Ev
                0x0000d57c                _ZN4PadsC1Ev
 .text._ZN4Pads4initEv
                0x0000d66e       0x12 interface/pads/Pads.o
                0x0000d66e                _ZN4Pads4initEv
 .text._GLOBAL__sub_I__ZN4PadsC2Ev
                0x0000d680        0x8 interface/pads/Pads.o
 .text._ZN4Pads3mapEmmmmm
                0x0000d688       0x8a interface/pads/Scaling.o
                0x0000d688                _ZN4Pads3mapEmmmmm
 .text._ZN4Pads13scalePressureEhi14pressureType_t
                0x0000d712      0x10a interface/pads/Scaling.o
                0x0000d712                _ZN4Pads13scalePressureEhi14pressureType_t
 .text._ZN4Pads7scaleXYEhi16coordinateType_t
                0x0000d81c      0x10c interface/pads/Scaling.o
                0x0000d81c                _ZN4Pads7scaleXYEhi16coordinateType_t
 .text._ZN4Pads16setMIDISendStateE7onOff_thb
                0x0000d928      0x11c interface/pads/Setters.o
                0x0000d928                _ZN4Pads16setMIDISendStateE7onOff_thb
 .text._ZN4Pads10splitOnOffEv
                0x0000da44       0x4c interface/pads/Setters.o
                0x0000da44                _ZN4Pads10splitOnOffEv
 .text._ZN4Pads9calibrateE16coordinateType_t20calibrationDirectionhj
                0x0000da90       0xa2 interface/pads/Setters.o
                0x0000da90                _ZN4Pads9calibrateE16coordinateType_t20calibrationDirectionhj
 .text._ZN4Pads18setCalibrationModeEb16coordinateType_t
                0x0000db32       0x22 interface/pads/Setters.o
                0x0000db32                _ZN4Pads18setCalibrationModeEb16coordinateType_t
 .text._ZN4Pads16resetCalibrationEv
                0x0000db54       0x1a interface/pads/Setters.o
                0x0000db54                _ZN4Pads16resetCalibrationEv
 .text._ZN4Pads16setActiveProgramEa
                0x0000db6e       0x52 interface/pads/Setters.o
                0x0000db6e                _ZN4Pads16setActiveProgramEa
 .text._ZN4Pads14setActiveScaleEa
                0x0000dbc0       0x5a interface/pads/Setters.o
                0x0000dbc0                _ZN4Pads14setActiveScaleEa
 .text._ZN4Pads17setAftertouchTypeE16aftertouchType_t
                0x0000dc1a       0x40 interface/pads/Setters.o
                0x0000dc1a                _ZN4Pads17setAftertouchTypeE16aftertouchType_t
 .text._ZN4Pads18changeActiveOctaveEb
                0x0000dc5a       0x40 interface/pads/Setters.o
                0x0000dc5a                _ZN4Pads18changeActiveOctaveEb
 .text._ZN4Pads8changeCCEb16coordinateType_ta
                0x0000dc9a      0x196 interface/pads/Setters.o
                0x0000dc9a                _ZN4Pads8changeCCEb16coordinateType_ta
 .text._ZN4Pads14changeCClimitsEb16coordinateType_t13ccLimitType_ta
                0x0000de30      0x1cc interface/pads/Setters.o
                0x0000de30                _ZN4Pads14changeCClimitsEb16coordinateType_t13ccLimitType_ta
 .text._ZN4Pads10setCCcurveEb16coordinateType_ta
                0x0000dffc      0x18c interface/pads/Setters.o
                0x0000dffc                _ZN4Pads10setCCcurveEb16coordinateType_ta
 .text._ZN4Pads14setMIDIchannelEhh
                0x0000e188       0xb2 interface/pads/Setters.o
                0x0000e188                _ZN4Pads14setMIDIchannelEhh
 .text._ZN4Pads13assignPadNoteEh6note_t
                0x0000e23a      0x24c interface/pads/Setters.o
                0x0000e23a                _ZN4Pads13assignPadNoteEh6note_t
 .text._ZN4Pads9shiftNoteEbb
                0x0000e486      0x1ae interface/pads/Setters.o
                0x0000e486                _ZN4Pads9shiftNoteEbb
 .text._ZN4Pads11shiftOctaveEb
                0x0000e634      0x4c4 interface/pads/Setters.o
                0x0000e634                _ZN4Pads11shiftOctaveEb
 .text._ZN4Pads25checkRemainingOctaveShiftEv
                0x0000eaf8       0xf0 interface/pads/Setters.o
                0x0000eaf8                _ZN4Pads25checkRemainingOctaveShiftEv
 .text._ZN4Pads8setTonicE6note_tb
                0x0000ebe8      0x2e0 interface/pads/Setters.o
                0x0000ebe8                _ZN4Pads8setTonicE6note_tb
 .text._ZN4Pads23checkRemainingNoteShiftEv
                0x0000eec8      0x1aa interface/pads/Setters.o
                0x0000eec8                _ZN4Pads23checkRemainingNoteShiftEv
 .text._ZN4Pads13midiSendOnOffE7onOff_t
                0x0000f072       0xee interface/pads/Setters.o
                0x0000f072                _ZN4Pads13midiSendOnOffE7onOff_t
 .text._ZN4Pads15setFunctionLEDsEh
                0x0000f160       0xc8 interface/pads/Setters.o
                0x0000f160                _ZN4Pads15setFunctionLEDsEh
 .text._ZN5SysExC2Ev
                0x0000f228       0x5c sysex/SysEx.o
                0x0000f228                _ZN5SysExC1Ev
                0x0000f228                _ZN5SysExC2Ev
 .text._ZN5SysEx11disableConfEv
                0x0000f284        0x6 sysex/SysEx.o
                0x0000f284                _ZN5SysEx11disableConfEv
 .text._ZN5SysEx7checkIDE19sysExManufacturerID
                0x0000f28a       0x1a sysex/SysEx.o
                0x0000f28a                _ZN5SysEx7checkIDE19sysExManufacturerID
 .text._ZN5SysEx10checkBlockEh
                0x0000f2a4       0x16 sysex/SysEx.o
                0x0000f2a4                _ZN5SysEx10checkBlockEh
 .text._ZN5SysEx17checkNewParameterEhhhh
                0x0000f2ba       0x70 sysex/SysEx.o
                0x0000f2ba                _ZN5SysEx17checkNewParameterEhhhh
 .text._ZN5SysEx24generateMinMessageLenghtEhhhh
                0x0000f32a       0x44 sysex/SysEx.o
                0x0000f32a                _ZN5SysEx24generateMinMessageLenghtEhhhh
 .text._ZN5SysEx9sendErrorE10sysExError
                0x0000f36e       0x4a sysex/SysEx.o
                0x0000f36e                _ZN5SysEx9sendErrorE10sysExError
 .text._ZN5SysEx20checkMessageValidityEPhh
                0x0000f3b8      0x142 sysex/SysEx.o
                0x0000f3b8                _ZN5SysEx20checkMessageValidityEPhh
 .text._ZN5SysEx17sendHelloResponseEv
                0x0000f4fa       0x4e sysex/SysEx.o
                0x0000f4fa                _ZN5SysEx17sendHelloResponseEv
 .text._ZN5SysEx12checkSpecialEPhh
                0x0000f548       0x50 sysex/SysEx.o
                0x0000f548                _ZN5SysEx12checkSpecialEPhh
 .text._ZN5SysEx12sendResponseEPhh
                0x0000f598      0x1f8 sysex/SysEx.o
                0x0000f598                _ZN5SysEx12sendResponseEPhh
 .text._ZN5SysEx11handleSysExEPhh
                0x0000f790       0x66 sysex/SysEx.o
                0x0000f790                _ZN5SysEx11handleSysExEPhh
 .text._ZN5SysEx15setHandleRebootEPFvvE
                0x0000f7f6        0x8 sysex/SysEx.o
                0x0000f7f6                _ZN5SysEx15setHandleRebootEPFvvE
 .text._ZN5SysEx21setHandleFactoryResetEPFvvE
                0x0000f7fe        0x8 sysex/SysEx.o
                0x0000f7fe                _ZN5SysEx21setHandleFactoryResetEPFvvE
 .text._ZN5SysEx12setHandleGetEPFhhhhE
                0x0000f806        0x8 sysex/SysEx.o
                0x0000f806                _ZN5SysEx12setHandleGetEPFhhhhE
 .text._ZN5SysEx12setHandleSetEPFbhhhhE
                0x0000f80e        0x8 sysex/SysEx.o
                0x0000f80e                _ZN5SysEx12setHandleSetEPFbhhhhE
 .text._ZN5SysEx14setHandleResetEPFbhhhE
                0x0000f816        0x8 sysex/SysEx.o
                0x0000f816                _ZN5SysEx14setHandleResetEPFbhhhE
 .text._GLOBAL__sub_I__ZN5SysExC2Ev
                0x0000f81e        0x8 sysex/SysEx.o
 .text._Z16checkNewRevisionv
                0x0000f826       0x2a version/Firmware.o
                0x0000f826                _Z16checkNewRevisionv
 .text._Z12getSWversion11swVersion_t
                0x0000f850       0x2a version/Firmware.o
                0x0000f850                _Z12getSWversion11swVersion_t
 .text._Z8onRebootv
                0x0000f87a        0x2 Zvuk9.o
                0x0000f87a                _Z8onRebootv
 .text._Z14onFactoryResetv
                0x0000f87c        0x2 Zvuk9.o
                0x0000f87c                _Z14onFactoryResetv
 .text._Z5onGethhh
                0x0000f87e        0x4 Zvuk9.o
                0x0000f87e                _Z5onGethhh
 .text._Z5onSethhhh
                0x0000f882        0x4 Zvuk9.o
                0x0000f882                _Z5onSethhhh
 .text._Z7onResethhh
                0x0000f886        0x4 Zvuk9.o
                0x0000f886                _Z7onResethhh
 .text.main     0x0000f88a       0x74 Zvuk9.o
                0x0000f88a                main
 .text._ZN4MIDI4initEv
                0x0000f8fe      0x130 midi/MIDI.o
                0x0000f8fe                _ZN4MIDI4initEv
 .text._ZN4MIDI10checkInputEv
                0x0000fa2e       0x9a midi/MIDI.o
                0x0000fa2e                _ZN4MIDI10checkInputEv
 .text._ZN4MIDI10sendNoteOnEhhh
                0x0000fac8       0x38 midi/MIDI.o
                0x0000fac8                _ZN4MIDI10sendNoteOnEhhh
 .text._ZN4MIDI11sendNoteOffEhhh
                0x0000fb00       0x46 midi/MIDI.o
                0x0000fb00                _ZN4MIDI11sendNoteOffEhhh
 .text._ZN4MIDI17sendControlChangeEhhh
                0x0000fb46       0x38 midi/MIDI.o
                0x0000fb46                _ZN4MIDI17sendControlChangeEhhh
 .text._ZN4MIDI21sendChannelAftertouchEhh
                0x0000fb7e       0x2a midi/MIDI.o
                0x0000fb7e                _ZN4MIDI21sendChannelAftertouchEhh
 .text._ZN4MIDI17sendKeyAftertouchEhhh
                0x0000fba8       0x38 midi/MIDI.o
                0x0000fba8                _ZN4MIDI17sendKeyAftertouchEhhh
 .text._ZN4MIDI9sendSysExEPhh
                0x0000fbe0       0x3c midi/MIDI.o
                0x0000fbe0                _ZN4MIDI9sendSysExEPhh
 .text._ZN4MIDI16getNoteOffStatusEv
                0x0000fc1c        0x6 midi/MIDI.o
                0x0000fc1c                _ZN4MIDI16getNoteOffStatusEv
 .text._ZN4MIDI16setNoteOffStatusE13noteOffType_t
                0x0000fc22       0x28 midi/MIDI.o
                0x0000fc22                _ZN4MIDI16setNoteOffStatusE13noteOffType_t
 .text._ZN4MIDI20runningStatusEnabledEv
                0x0000fc4a        0xa midi/MIDI.o
                0x0000fc4a                _ZN4MIDI20runningStatusEnabledEv
 .text._ZN4MIDI16setRunningStatusEb
                0x0000fc54       0x3a midi/MIDI.o
                0x0000fc54                _ZN4MIDI16setRunningStatusEb
 .text._Z16getNotesPerScale7scale_t
                0x0000fc8e       0x14 Scales.o
                0x0000fc8e                _Z16getNotesPerScale7scale_t
 .text._Z12getScaleNote7scale_th
                0x0000fca2       0x68 Scales.o
                0x0000fca2                _Z12getScaleNote7scale_th
 .text.avr-libc.fplib
                0x0000fd0a        0xa c:/program files (x86)/atmel/studio/7.0/toolchain/avr8/avr8-gnu-toolchain/bin/../lib/gcc/avr/4.9.2/../../../../avr/lib/avr51\libm.a(addsf3.o)
                0x0000fd0a                __subsf3
                0x0000fd0c                __addsf3
 .text.avr-libc.fplib
                0x0000fd14       0xc0 c:/program files (x86)/atmel/studio/7.0/toolchain/avr8/avr8-gnu-toolchain/bin/../lib/gcc/avr/4.9.2/../../../../avr/lib/avr51\libm.a(addsf3x.o)
                0x0000fd2e                __addsf3x
 .text.avr-libc.fplib
                0x0000fdd4        0x8 c:/program files (x86)/atmel/studio/7.0/toolchain/avr8/avr8-gnu-toolchain/bin/../lib/gcc/avr/4.9.2/../../../../avr/lib/avr51\libm.a(cmpsf2.o)
                0x0000fdd4                __nesf2
                0x0000fdd4                __eqsf2
                0x0000fdd4                __cmpsf2
                0x0000fdd4                __ltsf2
                0x0000fdd4                __lesf2
 .text.avr-libc.fplib
                0x0000fddc        0x4 c:/program files (x86)/atmel/studio/7.0/toolchain/avr8/avr8-gnu-toolchain/bin/../lib/gcc/avr/4.9.2/../../../../avr/lib/avr51\libm.a(divsf3.o)
                0x0000fddc                __divsf3
 .text.avr-libc.fplib
                0x0000fde0       0xcc c:/program files (x86)/atmel/studio/7.0/toolchain/avr8/avr8-gnu-toolchain/bin/../lib/gcc/avr/4.9.2/../../../../avr/lib/avr51\libm.a(divsf3x.o)
                0x0000fdf6                __divsf3x
                0x0000fdfa                __divsf3_pse
 .text.avr-libc.fplib
                0x0000feac       0x58 c:/program files (x86)/atmel/studio/7.0/toolchain/avr8/avr8-gnu-toolchain/bin/../lib/gcc/avr/4.9.2/../../../../avr/lib/avr51\libm.a(fixunssfsi.o)
                0x0000feac                __fixunssfsi
 .text.avr-libc.fplib
                0x0000ff04       0x7a c:/program files (x86)/atmel/studio/7.0/toolchain/avr8/avr8-gnu-toolchain/bin/../lib/gcc/avr/4.9.2/../../../../avr/lib/avr51\libm.a(floatsisf.o)
                0x0000ff04                __floatunsisf
                0x0000ff08                __floatsisf
 .text.avr-libc.fplib
                0x0000ff7e       0x48 c:/program files (x86)/atmel/studio/7.0/toolchain/avr8/avr8-gnu-toolchain/bin/../lib/gcc/avr/4.9.2/../../../../avr/lib/avr51\libm.a(fp_cmp.o)
                0x0000ff7e                __fp_cmp
 .text.avr-libc.fplib
                0x0000ffc6        0xc c:/program files (x86)/atmel/studio/7.0/toolchain/avr8/avr8-gnu-toolchain/bin/../lib/gcc/avr/4.9.2/../../../../avr/lib/avr51\libm.a(fp_inf.o)
                0x0000ffc6                __fp_inf
 .text.avr-libc.fplib
                0x0000ffd2        0x6 c:/program files (x86)/atmel/studio/7.0/toolchain/avr8/avr8-gnu-toolchain/bin/../lib/gcc/avr/4.9.2/../../../../avr/lib/avr51\libm.a(fp_nan.o)
                0x0000ffd2                __fp_nan
 .text.avr-libc.fplib
                0x0000ffd8        0xe c:/program files (x86)/atmel/studio/7.0/toolchain/avr8/avr8-gnu-toolchain/bin/../lib/gcc/avr/4.9.2/../../../../avr/lib/avr51\libm.a(fp_pscA.o)
                0x0000ffd8                __fp_pscA
 .text.avr-libc.fplib
                0x0000ffe6        0xe c:/program files (x86)/atmel/studio/7.0/toolchain/avr8/avr8-gnu-toolchain/bin/../lib/gcc/avr/4.9.2/../../../../avr/lib/avr51\libm.a(fp_pscB.o)
                0x0000ffe6                __fp_pscB
 .text.avr-libc.fplib
                0x0000fff4       0x22 c:/program files (x86)/atmel/studio/7.0/toolchain/avr8/avr8-gnu-toolchain/bin/../lib/gcc/avr/4.9.2/../../../../avr/lib/avr51\libm.a(fp_round.o)
                0x0000fff4                __fp_round
 .text.avr-libc.fplib
                0x00010016       0x44 c:/program files (x86)/atmel/studio/7.0/toolchain/avr8/avr8-gnu-toolchain/bin/../lib/gcc/avr/4.9.2/../../../../avr/lib/avr51\libm.a(fp_split3.o)
                0x00010016                __fp_split3
                0x00010026                __fp_splitA
 .text.avr-libc.fplib
                0x0001005a        0xe c:/program files (x86)/atmel/studio/7.0/toolchain/avr8/avr8-gnu-toolchain/bin/../lib/gcc/avr/4.9.2/../../../../avr/lib/avr51\libm.a(fp_zero.o)
                0x0001005a                __fp_zero
                0x0001005c                __fp_szero
 .text.avr-libc.fplib
                0x00010068       0x8a c:/program files (x86)/atmel/studio/7.0/toolchain/avr8/avr8-gnu-toolchain/bin/../lib/gcc/avr/4.9.2/../../../../avr/lib/avr51\libm.a(log.o)
                0x00010072                log
 .text.avr-libc.fplib
                0x000100f2        0x4 c:/program files (x86)/atmel/studio/7.0/toolchain/avr8/avr8-gnu-toolchain/bin/../lib/gcc/avr/4.9.2/../../../../avr/lib/avr51\libm.a(mulsf3.o)
                0x000100f2                __mulsf3
 .text.avr-libc.fplib
                0x000100f6       0xc2 c:/program files (x86)/atmel/studio/7.0/toolchain/avr8/avr8-gnu-toolchain/bin/../lib/gcc/avr/4.9.2/../../../../avr/lib/avr51\libm.a(mulsf3x.o)
                0x0001010a                __mulsf3x
                0x0001010e                __mulsf3_pse
 .text.avr-libc.fplib
                0x000101b8       0x98 c:/program files (x86)/atmel/studio/7.0/toolchain/avr8/avr8-gnu-toolchain/bin/../lib/gcc/avr/4.9.2/../../../../avr/lib/avr51\libm.a(pow.o)
                0x000101b8                pow
 .text.avr-libc.fplib
                0x00010250       0x40 c:/program files (x86)/atmel/studio/7.0/toolchain/avr8/avr8-gnu-toolchain/bin/../lib/gcc/avr/4.9.2/../../../../avr/lib/avr51\libm.a(round.o)
                0x00010250                round
 .text.avr-libc.fplib
                0x00010290       0x62 c:/program files (x86)/atmel/studio/7.0/toolchain/avr8/avr8-gnu-toolchain/bin/../lib/gcc/avr/4.9.2/../../../../avr/lib/avr51\libm.a(exp.o)
                0x0001029a                exp
 .text.avr-libc.fplib
                0x000102f2       0x36 c:/program files (x86)/atmel/studio/7.0/toolchain/avr8/avr8-gnu-toolchain/bin/../lib/gcc/avr/4.9.2/../../../../avr/lib/avr51\libm.a(fp_mintl.o)
                0x000102f2                __fp_mintl
 .text.avr-libc.fplib
                0x00010328       0x1c c:/program files (x86)/atmel/studio/7.0/toolchain/avr8/avr8-gnu-toolchain/bin/../lib/gcc/avr/4.9.2/../../../../avr/lib/avr51\libm.a(fp_mpack.o)
                0x00010328                __fp_mpack
                0x0001032c                __fp_mpack_finite
 .text.avr-libc.fplib
                0x00010344       0x4a c:/program files (x86)/atmel/studio/7.0/toolchain/avr8/avr8-gnu-toolchain/bin/../lib/gcc/avr/4.9.2/../../../../avr/lib/avr51\libm.a(fp_powser.o)
                0x00010344                __fp_powser
 .text.avr-libc.fplib
                0x0001038e        0xe c:/program files (x86)/atmel/studio/7.0/toolchain/avr8/avr8-gnu-toolchain/bin/../lib/gcc/avr/4.9.2/../../../../avr/lib/avr51\libm.a(inverse.o)
                0x0001038e                inverse
 .text.avr-libc.fplib
                0x0001039c       0x6c c:/program files (x86)/atmel/studio/7.0/toolchain/avr8/avr8-gnu-toolchain/bin/../lib/gcc/avr/4.9.2/../../../../avr/lib/avr51\libm.a(ldexp.o)
                0x000103a0                ldexp
 .text.avr-libc.fplib
                0x00010408       0x66 c:/program files (x86)/atmel/studio/7.0/toolchain/avr8/avr8-gnu-toolchain/bin/../lib/gcc/avr/4.9.2/../../../../avr/lib/avr51\libm.a(modf.o)
                0x00010408                modf
                0x00010408                modff
 .text.libgcc.mul
                0x0001046e       0x1e c:/program files (x86)/atmel/studio/7.0/toolchain/avr8/avr8-gnu-toolchain/bin/../lib/gcc/avr/4.9.2/avr51\libgcc.a(_mulsi3.o)
                0x0001046e                __mulsi3
 .text.libgcc.div
                0x0001048c       0x44 c:/program files (x86)/atmel/studio/7.0/toolchain/avr8/avr8-gnu-toolchain/bin/../lib/gcc/avr/4.9.2/avr51\libgcc.a(_udivmodsi4.o)
                0x0001048c                __udivmodsi4
 .text.libgcc.div
                0x000104d0       0x28 c:/program files (x86)/atmel/studio/7.0/toolchain/avr8/avr8-gnu-toolchain/bin/../lib/gcc/avr/4.9.2/avr51\libgcc.a(_divmodsi4.o)
                0x000104d0                __divmodsi4
 .text.libgcc.div
                0x000104f8       0x10 c:/program files (x86)/atmel/studio/7.0/toolchain/avr8/avr8-gnu-toolchain/bin/../lib/gcc/avr/4.9.2/avr51\libgcc.a(_negsi2.o)
                0x000104f8                __negsi2
 .text.libgcc   0x00010508       0x12 c:/program files (x86)/atmel/studio/7.0/toolchain/avr8/avr8-gnu-toolchain/bin/../lib/gcc/avr/4.9.2/avr51\libgcc.a(_tablejump2.o)
                0x00010508                __tablejump2__
 .text.libgcc.mul
                0x0001051a       0x1e c:/program files (x86)/atmel/studio/7.0/toolchain/avr8/avr8-gnu-toolchain/bin/../lib/gcc/avr/4.9.2/avr51\libgcc.a(_umulhisi3.o)
                0x0001051a                __umulhisi3
 .text.libgcc.mul
                0x00010538       0x14 c:/program files (x86)/atmel/studio/7.0/toolchain/avr8/avr8-gnu-toolchain/bin/../lib/gcc/avr/4.9.2/avr51\libgcc.a(_muluhisi3.o)
                0x00010538                __muluhisi3
 .text.avr-libc
                0x0001054c       0x12 c:/program files (x86)/atmel/studio/7.0/toolchain/avr8/avr8-gnu-toolchain/bin/../lib/gcc/avr/4.9.2/../../../../avr/lib/avr51\libc.a(memcpy_P.o)
                0x0001054c                memcpy_P
 .text.avr-libc
                0x0001055e        0xe c:/program files (x86)/atmel/studio/7.0/toolchain/avr8/avr8-gnu-toolchain/bin/../lib/gcc/avr/4.9.2/../../../../avr/lib/avr51\libc.a(strcpy_P.o)
                0x0001055e                strcpy_P
 .text.avr-libc
                0x0001056c       0x12 c:/program files (x86)/atmel/studio/7.0/toolchain/avr8/avr8-gnu-toolchain/bin/../lib/gcc/avr/4.9.2/../../../../avr/lib/avr51\libc.a(strlen_P.o)
                0x0001056c                __strlen_P
 .text.avr-libc
                0x0001057e       0x16 c:/program files (x86)/atmel/studio/7.0/toolchain/avr8/avr8-gnu-toolchain/bin/../lib/gcc/avr/4.9.2/../../../../avr/lib/avr51\libc.a(strcat.o)
                0x0001057e                strcat
 .text.avr-libc
                0x00010594        0xe c:/program files (x86)/atmel/studio/7.0/toolchain/avr8/avr8-gnu-toolchain/bin/../lib/gcc/avr/4.9.2/../../../../avr/lib/avr51\libc.a(strcpy.o)
                0x00010594                strcpy
 .text.avr-libc
                0x000105a2       0x20 c:/program files (x86)/atmel/studio/7.0/toolchain/avr8/avr8-gnu-toolchain/bin/../lib/gcc/avr/4.9.2/../../../../avr/lib/avr51\libc.a(strncat.o)
                0x000105a2                strncat
 .text.avr-libc
                0x000105c2       0x14 c:/program files (x86)/atmel/studio/7.0/toolchain/avr8/avr8-gnu-toolchain/bin/../lib/gcc/avr/4.9.2/../../../../avr/lib/avr51\libc.a(itoa_ncheck.o)
                0x000105c2                __itoa_ncheck
 .text.avr-libc
                0x000105d6       0x32 c:/program files (x86)/atmel/studio/7.0/toolchain/avr8/avr8-gnu-toolchain/bin/../lib/gcc/avr/4.9.2/../../../../avr/lib/avr51\libc.a(utoa_ncheck.o)
                0x000105d6                __utoa_ncheck
                0x000105d8                __utoa_common
 .text.avr-libc
                0x00010608       0x20 c:/program files (x86)/atmel/studio/7.0/toolchain/avr8/avr8-gnu-toolchain/bin/../lib/gcc/avr/4.9.2/../../../../avr/lib/avr51\libc.a(strrev.o)
                0x00010608                strrev
 .text.avr-libc
                0x00010628       0x10 c:/program files (x86)/atmel/studio/7.0/toolchain/avr8/avr8-gnu-toolchain/bin/../lib/gcc/avr/4.9.2/../../../../avr/lib/avr51\libat90usb1286.a(eerd_byte.o)
                0x00010628                eeprom_read_byte
 .text.avr-libc
                0x00010638        0xa c:/program files (x86)/atmel/studio/7.0/toolchain/avr8/avr8-gnu-toolchain/bin/../lib/gcc/avr/4.9.2/../../../../avr/lib/avr51\libat90usb1286.a(eerd_word.o)
                0x00010638                eeprom_read_word
 .text.avr-libc
                0x00010642       0x24 c:/program files (x86)/atmel/studio/7.0/toolchain/avr8/avr8-gnu-toolchain/bin/../lib/gcc/avr/4.9.2/../../../../avr/lib/avr51\libat90usb1286.a(eeupd_byte.o)
                0x00010642                eeprom_update_byte
                0x00010644                eeprom_update_r18
 .text.avr-libc
                0x00010666        0x8 c:/program files (x86)/atmel/studio/7.0/toolchain/avr8/avr8-gnu-toolchain/bin/../lib/gcc/avr/4.9.2/../../../../avr/lib/avr51\libat90usb1286.a(eeupd_word.o)
                0x00010666                eeprom_update_word
 .text.avr-libc
                0x0001066e       0x20 c:/program files (x86)/atmel/studio/7.0/toolchain/avr8/avr8-gnu-toolchain/bin/../lib/gcc/avr/4.9.2/../../../../avr/lib/avr51\libat90usb1286.a(eerd_block.o)
                0x0001066e                eeprom_read_block
                0x00010672                eeprom_read_blraw
                0x0001068e                . = ALIGN (0x2)
 *(.fini9)
 .fini9         0x0001068e        0x0 c:/program files (x86)/atmel/studio/7.0/toolchain/avr8/avr8-gnu-toolchain/bin/../lib/gcc/avr/4.9.2/avr51\libgcc.a(_exit.o)
                0x0001068e                _exit
                0x0001068e                exit
 *(.fini9)
 *(.fini8)
 *(.fini8)
 *(.fini7)
 *(.fini7)
 *(.fini6)
 *(.fini6)
 *(.fini5)
 *(.fini5)
 *(.fini4)
 *(.fini4)
 *(.fini3)
 *(.fini3)
 *(.fini2)
 *(.fini2)
 *(.fini1)
 *(.fini1)
 *(.fini0)
 .fini0         0x0001068e        0x4 c:/program files (x86)/atmel/studio/7.0/toolchain/avr8/avr8-gnu-toolchain/bin/../lib/gcc/avr/4.9.2/avr51\libgcc.a(_exit.o)
 *(.fini0)
                0x00010692                _etext = .

.data           0x00800100      0x10c load address 0x00010692
                0x00800100                PROVIDE (__data_start, .)
 *(.data)
 *(.data*)
 .data.encoderPin2Array
                0x00800100       0x14 hardware/timer/TimerObject.o
                0x00800100                encoderPin2Array
 .data.encoderPin1Array
                0x00800114       0x14 hardware/timer/TimerObject.o
                0x00800114                encoderPin1Array
 .data.pwmSteps
                0x00800128        0x1 hardware/timer/TimerObject.o
                0x00800128                pwmSteps
 .data._ZZN4Pads12checkLCDdataEhbbbbE12lastShownPad
                0x00800129        0x1 interface/pads/DataProcessing.o
 .data._ZZN4Pads9xyUpdatedEhE6yValue
                0x0080012a        0x2 interface/pads/DataProcessing.o
 .data._ZZN4Pads9xyUpdatedEhE6xValue
                0x0080012c        0x2 interface/pads/DataProcessing.o
 .data._ZZN4Pads11getPressureEvE8firstPin
                0x0080012e        0x1 interface/pads/HardwareControl.o
 *(.rodata)
 .rodata        0x0080012f       0x50 hardware/timer/TimerObject.o
 .rodata        0x0080017f        0x6 interface/buttons/Buttons.o
 *(.rodata*)
 .rodata._ZL31defaultLocalProgramSettingArray
                0x00800185        0xd eeprom/Configuration.o
 .rodata._ZL32defaultGlobalProgramSettingArray
                0x00800192       0x13 eeprom/Configuration.o
 .rodata._ZL21encoderPinIndex2Array
                0x008001a5        0xa hardware/timer/TimerObject.o
 .rodata._ZL21encoderPinIndex1Array
                0x008001af        0xa hardware/timer/TimerObject.o
 .rodata._ZL18encoderLookUpTable
                0x008001b9       0x10 hardware/timer/TimerObject.o
 .rodata._ZL12ledNoteArray
                0x008001c9        0xc interface/leds/LEDs.o
 .rodata._ZL5padID
                0x008001d5        0x9 interface/pads/DataProcessing.o
 .rodata._ZL26scaleMajorPentatonic_notes
                0x008001de        0x5 Scales.o
 .rodata._ZL26scaleMinorPentatonic_notes
                0x008001e3        0x5 Scales.o
 .rodata._ZL24scaleHarmonicMajor_notes
                0x008001e8        0x7 Scales.o
 .rodata._ZL16scaleMajor_notes
                0x008001ef        0x7 Scales.o
 .rodata._ZL24scaleHarmonicMinor_notes
                0x008001f6        0x7 Scales.o
 .rodata._ZL23scaleMelodicMinor_notes
                0x008001fd        0x7 Scales.o
 .rodata._ZL23scaleNaturalMinor_notes
                0x00800204        0x7 Scales.o
 *(.gnu.linkonce.d*)
                0x0080020c                . = ALIGN (0x2)
 *fill*         0x0080020b        0x1 
                0x0080020c                _edata = .
                0x0080020c                PROVIDE (__data_end, .)

.bss            0x0080020c     0x11cd
                0x0080020c                PROVIDE (__bss_start, .)
 *(.bss)
 *(.bss*)
 .bss.configuration
                0x0080020c      0x4c3 eeprom/Configuration.o
                0x0080020c                configuration
 .bss.adcValue  0x008006cf        0x2 hardware/adc/ADC.o
                0x008006cf                adcValue
 .bss.hwMIDI    0x008006d1       0x38 hardware/midi/MIDI.o
                0x008006d1                hwMIDI
 .bss.MIDI_Interface
                0x00800709        0xc hardware/midi/MIDI.o
                0x00800709                MIDI_Interface
 .bss._ZZ11__vector_32E14encoderCounter
                0x00800715        0x1 hardware/timer/TimerObject.o
 .bss._ZZ11__vector_21E12updateMillis
                0x00800716        0x1 hardware/timer/TimerObject.o
 .bss._ZZ11__vector_21E16ledUpdateCounter
                0x00800717        0x1 hardware/timer/TimerObject.o
 .bss.timers    0x00800718        0x1 hardware/timer/TimerObject.o
                0x00800718                timers
 .bss.rTime_ms  0x00800719        0x4 hardware/timer/TimerObject.o
                0x00800719                rTime_ms
 .bss.encoderData
                0x0080071d       0x14 hardware/timer/TimerObject.o
                0x0080071d                encoderData
 .bss.encoderMoving
                0x00800731        0xa hardware/timer/TimerObject.o
                0x00800731                encoderMoving
 .bss.ledBlinkTimer
                0x0080073b       0x30 hardware/timer/TimerObject.o
                0x0080073b                ledBlinkTimer
 .bss.ledBlinking
                0x0080076b        0x4 hardware/timer/TimerObject.o
                0x0080076b                ledBlinking
 .bss.transitionCounter
                0x0080076f       0x30 hardware/timer/TimerObject.o
                0x0080076f                transitionCounter
 .bss.ledState  0x0080079f       0x18 hardware/timer/TimerObject.o
                0x0080079f                ledState
 .bss.activeColumnInterrupt
                0x008007b7        0x1 hardware/timer/TimerObject.o
                0x008007b7                activeColumnInterrupt
 .bss.uart      0x008007b8        0x1 hardware/uart/UART.o
                0x008007b8                uart
 .bss.txEnabled
                0x008007b9        0x1 hardware/uart/UART.o
                0x008007b9                txEnabled
 .bss.rxEnabled
                0x008007ba        0x1 hardware/uart/UART.o
                0x008007ba                rxEnabled
 .bss._ZL12transmitting
                0x008007bb        0x1 hardware/uart/UART.o
 .bss._ZL14tx_buffer_tail
                0x008007bc        0x1 hardware/uart/UART.o
 .bss._ZL14tx_buffer_head
                0x008007bd        0x1 hardware/uart/UART.o
 .bss._ZL14rx_buffer_tail
                0x008007be        0x1 hardware/uart/UART.o
 .bss._ZL14rx_buffer_head
                0x008007bf        0x1 hardware/uart/UART.o
 .bss._ZL9rx_buffer
                0x008007c0       0x40 hardware/uart/UART.o
 .bss._ZL9tx_buffer
                0x00800800       0x40 hardware/uart/UART.o
 .bss.buttons   0x00800840       0x51 interface/buttons/Buttons.o
                0x00800840                buttons
 .bss.buttonToLedArray
                0x00800891       0x20 interface/buttons/Map.o
                0x00800891                buttonToLedArray
 .bss.encoders  0x008008b1       0x28 interface/encoders/Encoders.o
                0x008008b1                encoders
 .bss.menu      0x008008d9      0x389 interface/lcd/menu/Menu.o
                0x008008d9                menu
 .bss.display   0x00800c62      0x26e interface/lcd/UpdateLogic.o
                0x00800c62                display
 .bss.leds      0x00800ed0        0x1 interface/leds/LEDs.o
                0x00800ed0                leds
 .bss.curves    0x00800ed1       0x86 interface/pads/curves/Curves.o
                0x00800ed1                curves
 .bss._ZZN4Pads12checkLCDdataEhbbbbE10lcdCleared
                0x00800f57        0x1 interface/pads/DataProcessing.o
 .bss._ZZN4Pads9xyUpdatedEhE8admuxSet
                0x00800f58        0x1 interface/pads/DataProcessing.o
 .bss._ZZN4Pads6updateEvE10yAvailable
                0x00800f59        0x1 interface/pads/DataProcessing.o
 .bss._ZZN4Pads6updateEvE10xAvailable
                0x00800f5a        0x1 interface/pads/DataProcessing.o
 .bss._ZZN4Pads6updateEvE19aftertouchAvailable
                0x00800f5b        0x1 interface/pads/DataProcessing.o
 .bss._ZZN4Pads6updateEvE17velocityAvailable
                0x00800f5c        0x1 interface/pads/DataProcessing.o
 .bss.editModeActivated
                0x00800f5d        0x1 interface/pads/EditMode.o
                0x00800f5d                editModeActivated
 .bss._ZZN4Pads4getYEvE9ySwitched
                0x00800f5e        0x1 interface/pads/HardwareControl.o
 .bss._ZZN4Pads4getXEvE9xSwitched
                0x00800f5f        0x1 interface/pads/HardwareControl.o
 .bss._ZZN4Pads11getPressureEvE19tempPressureValueZ2
                0x00800f60        0x2 interface/pads/HardwareControl.o
 .bss._ZZN4Pads11getPressureEvE19tempPressureValueZ1
                0x00800f62        0x2 interface/pads/HardwareControl.o
 .bss._ZZN4Pads11getPressureEvE25secondPressurePinFinished
                0x00800f64        0x1 interface/pads/HardwareControl.o
 .bss._ZZN4Pads11getPressureEvE24firstPressurePinFinished
                0x00800f65        0x1 interface/pads/HardwareControl.o
 .bss.adcPinReadOrder
                0x00800f66        0x4 interface/pads/HardwareControl.o
                0x00800f66                adcPinReadOrder
 .bss.pads      0x00800f6a      0x37e interface/pads/Pads.o
                0x00800f6a                pads
 .bss.sysEx     0x008012e8       0xdf sysex/SysEx.o
                0x008012e8                sysEx
 .bss.midi      0x008013c7        0x5 midi/MIDI.o
                0x008013c7                midi
 *(COMMON)
 COMMON         0x008013cc        0x3 hardware/usb/lufa/LUFA/Drivers/USB/Core/DeviceStandardReq.o
                0x008013cc                USB_Device_ConfigurationNumber
                0x008013cd                USB_Device_CurrentlySelfPowered
                0x008013ce                USB_Device_RemoteWakeupEnabled
 COMMON         0x008013cf        0xa hardware/usb/lufa/LUFA/Drivers/USB/Core/USBTask.o
                0x008013cf                USB_IsInitialized
                0x008013d0                USB_DeviceState
                0x008013d1                USB_ControlRequest
                0x008013d9                PROVIDE (__bss_end, .)
                0x00010692                __data_load_start = LOADADDR (.data)
                0x0001079e                __data_load_end = (__data_load_start + SIZEOF (.data))

.noinit         0x008013d9        0x0
                [!provide]                PROVIDE (__noinit_start, .)
 *(.noinit*)
                [!provide]                PROVIDE (__noinit_end, .)
                0x008013d9                _end = .
                [!provide]                PROVIDE (__heap_start, .)

.eeprom         0x00810000        0x0
 *(.eeprom*)
                0x00810000                __eeprom_end = .

.fuse
 *(.fuse)
 *(.lfuse)
 *(.hfuse)
 *(.efuse)

.lock
 *(.lock*)

.signature
 *(.signature*)

.user_signatures
 *(.user_signatures*)

.stab
 *(.stab)

.stabstr
 *(.stabstr)

.stab.excl
 *(.stab.excl)

.stab.exclstr
 *(.stab.exclstr)

.stab.index
 *(.stab.index)

.stab.indexstr
 *(.stab.indexstr)

.comment        0x00000000       0x30
 *(.comment)
 .comment       0x00000000       0x30 eeprom/Configuration.o
                                 0x31 (size before relaxing)
 .comment       0x00000030       0x31 eeprom/MemoryLayout.o
 .comment       0x00000030       0x31 hardware/adc/ADC.o
 .comment       0x00000030       0x31 hardware/i2c/i2c_master.o
 .comment       0x00000030       0x31 hardware/lcd/lcd.o
 .comment       0x00000030       0x31 hardware/midi/MIDI.o
 .comment       0x00000030       0x31 hardware/timer/TimerObject.o
 .comment       0x00000030       0x31 hardware/uart/UART.o
 .comment       0x00000030       0x31 hardware/usb/lufa/LUFA/Drivers/USB/Class/Device/MIDIClassDevice.o
 .comment       0x00000030       0x31 hardware/usb/lufa/LUFA/Drivers/USB/Core/AVR8/EndpointStream_AVR8.o
 .comment       0x00000030       0x31 hardware/usb/lufa/LUFA/Drivers/USB/Core/AVR8/Endpoint_AVR8.o
 .comment       0x00000030       0x31 hardware/usb/lufa/LUFA/Drivers/USB/Core/AVR8/USBController_AVR8.o
 .comment       0x00000030       0x31 hardware/usb/lufa/LUFA/Drivers/USB/Core/AVR8/USBInterrupt_AVR8.o
 .comment       0x00000030       0x31 hardware/usb/lufa/LUFA/Drivers/USB/Core/DeviceStandardReq.o
 .comment       0x00000030       0x31 hardware/usb/lufa/LUFA/Drivers/USB/Core/Events.o
 .comment       0x00000030       0x31 hardware/usb/lufa/LUFA/Drivers/USB/Core/USBTask.o
 .comment       0x00000030       0x31 hardware/usb/midi/Descriptors.o
 .comment       0x00000030       0x31 init/Init.o
 .comment       0x00000030       0x31 interface/buttons/Buttons.o
 .comment       0x00000030       0x31 interface/buttons/Map.o
 .comment       0x00000030       0x31 interface/buttons/UpdateLogic.o
 .comment       0x00000030       0x31 interface/encoders/Encoders.o
 .comment       0x00000030       0x31 interface/lcd/Layout.o
 .comment       0x00000030       0x31 interface/lcd/menu/functions/MenuFunctions.o
 .comment       0x00000030       0x31 interface/lcd/menu/layout/ServiceMenu.o
 .comment       0x00000030       0x31 interface/lcd/menu/layout/UserMenu.o
 .comment       0x00000030       0x31 interface/lcd/menu/Menu.o
 .comment       0x00000030       0x31 interface/lcd/MessageBuilder.o
 .comment       0x00000030       0x31 interface/lcd/UpdateLogic.o
 .comment       0x00000030       0x31 interface/leds/LEDs.o
 .comment       0x00000030       0x31 interface/pads/curves/Curves.o
 .comment       0x00000030       0x31 interface/pads/DataOutput.o
 .comment       0x00000030       0x31 interface/pads/DataProcessing.o
 .comment       0x00000030       0x31 interface/pads/EditMode.o
 .comment       0x00000030       0x31 interface/pads/Getters.o
 .comment       0x00000030       0x31 interface/pads/HardwareControl.o
 .comment       0x00000030       0x31 interface/pads/Pads.o
 .comment       0x00000030       0x31 interface/pads/Scaling.o
 .comment       0x00000030       0x31 interface/pads/Setters.o
 .comment       0x00000030       0x31 sysex/SysEx.o
 .comment       0x00000030       0x31 version/Firmware.o
 .comment       0x00000030       0x31 Zvuk9.o
 .comment       0x00000030       0x31 midi/MIDI.o
 .comment       0x00000030       0x31 Scales.o

.note.gnu.avr.deviceinfo
                0x00000000       0x40
 .note.gnu.avr.deviceinfo
                0x00000000       0x40 c:/program files (x86)/atmel/studio/7.0/toolchain/avr8/avr8-gnu-toolchain/bin/../lib/gcc/avr/4.9.2/../../../../avr/lib/avr51/crtat90usb1286.o

.note.gnu.build-id
 *(.note.gnu.build-id)

.debug
 *(.debug)

.line
 *(.line)

.debug_srcinfo
 *(.debug_srcinfo)

.debug_sfnames
 *(.debug_sfnames)

.debug_aranges  0x00000000     0x1188
 *(.debug_aranges)
 .debug_aranges
                0x00000000       0x98 eeprom/Configuration.o
 .debug_aranges
                0x00000098       0x20 eeprom/MemoryLayout.o
 .debug_aranges
                0x000000b8       0x58 hardware/adc/ADC.o
 .debug_aranges
                0x00000110       0x68 hardware/i2c/i2c_master.o
 .debug_aranges
                0x00000178       0x88 hardware/lcd/lcd.o
 .debug_aranges
                0x00000200      0x188 hardware/midi/MIDI.o
 .debug_aranges
                0x00000388       0x70 hardware/timer/TimerObject.o
 .debug_aranges
                0x000003f8       0x58 hardware/uart/UART.o
 .debug_aranges
                0x00000450       0x40 hardware/usb/lufa/LUFA/Drivers/USB/Class/Device/MIDIClassDevice.o
 .debug_aranges
                0x00000490       0xc8 hardware/usb/lufa/LUFA/Drivers/USB/Core/AVR8/EndpointStream_AVR8.o
 .debug_aranges
                0x00000558       0x40 hardware/usb/lufa/LUFA/Drivers/USB/Core/AVR8/Endpoint_AVR8.o
 .debug_aranges
                0x00000598       0x30 hardware/usb/lufa/LUFA/Drivers/USB/Core/AVR8/USBController_AVR8.o
 .debug_aranges
                0x000005c8       0x38 hardware/usb/lufa/LUFA/Drivers/USB/Core/AVR8/USBInterrupt_AVR8.o
 .debug_aranges
                0x00000600       0x20 hardware/usb/lufa/LUFA/Drivers/USB/Core/DeviceStandardReq.o
 .debug_aranges
                0x00000620       0x20 hardware/usb/lufa/LUFA/Drivers/USB/Core/Events.o
 .debug_aranges
                0x00000640       0x20 hardware/usb/lufa/LUFA/Drivers/USB/Core/USBTask.o
 .debug_aranges
                0x00000660       0x20 hardware/usb/midi/Descriptors.o
 .debug_aranges
                0x00000680       0x30 init/Init.o
 .debug_aranges
                0x000006b0       0x48 interface/buttons/Buttons.o
 .debug_aranges
                0x000006f8       0x28 interface/buttons/Map.o
 .debug_aranges
                0x00000720       0x78 interface/buttons/UpdateLogic.o
 .debug_aranges
                0x00000798       0x48 interface/encoders/Encoders.o
 .debug_aranges
                0x000007e0       0x20 interface/lcd/Layout.o
 .debug_aranges
                0x00000800       0x68 interface/lcd/menu/functions/MenuFunctions.o
 .debug_aranges
                0x00000868       0x20 interface/lcd/menu/layout/ServiceMenu.o
 .debug_aranges
                0x00000888       0x20 interface/lcd/menu/layout/UserMenu.o
 .debug_aranges
                0x000008a8       0x80 interface/lcd/menu/Menu.o
 .debug_aranges
                0x00000928      0x148 interface/lcd/MessageBuilder.o
 .debug_aranges
                0x00000a70       0x60 interface/lcd/UpdateLogic.o
 .debug_aranges
                0x00000ad0       0x78 interface/leds/LEDs.o
 .debug_aranges
                0x00000b48       0x48 interface/pads/curves/Curves.o
 .debug_aranges
                0x00000b90       0x48 interface/pads/DataOutput.o
 .debug_aranges
                0x00000bd8       0xb8 interface/pads/DataProcessing.o
 .debug_aranges
                0x00000c90       0x40 interface/pads/EditMode.o
 .debug_aranges
                0x00000cd0      0x118 interface/pads/Getters.o
 .debug_aranges
                0x00000de8       0x70 interface/pads/HardwareControl.o
 .debug_aranges
                0x00000e58       0x30 interface/pads/Pads.o
 .debug_aranges
                0x00000e88       0x30 interface/pads/Scaling.o
 .debug_aranges
                0x00000eb8       0xc8 interface/pads/Setters.o
 .debug_aranges
                0x00000f80       0xf0 sysex/SysEx.o
 .debug_aranges
                0x00001070       0x28 version/Firmware.o
 .debug_aranges
                0x00001098       0x48 Zvuk9.o
 .debug_aranges
                0x000010e0       0x80 midi/MIDI.o
 .debug_aranges
                0x00001160       0x28 Scales.o

.debug_pubnames
 *(.debug_pubnames)

.debug_info     0x00000000    0x6488e
 *(.debug_info .gnu.linkonce.wi.*)
 .debug_info    0x00000000      0x995 c:/program files (x86)/atmel/studio/7.0/toolchain/avr8/avr8-gnu-toolchain/bin/../lib/gcc/avr/4.9.2/../../../../avr/lib/avr51/crtat90usb1286.o
 .debug_info    0x00000995     0x32cd eeprom/Configuration.o
 .debug_info    0x00003c62     0x213d eeprom/MemoryLayout.o
 .debug_info    0x00005d9f      0x2b9 hardware/adc/ADC.o
 .debug_info    0x00006058      0x426 hardware/i2c/i2c_master.o
 .debug_info    0x0000647e      0x821 hardware/lcd/lcd.o
 .debug_info    0x00006c9f     0x28e8 hardware/midi/MIDI.o
 .debug_info    0x00009587      0x989 hardware/timer/TimerObject.o
 .debug_info    0x00009f10      0x460 hardware/uart/UART.o
 .debug_info    0x0000a370      0x635 hardware/usb/lufa/LUFA/Drivers/USB/Class/Device/MIDIClassDevice.o
 .debug_info    0x0000a9a5     0x17c2 hardware/usb/lufa/LUFA/Drivers/USB/Core/AVR8/EndpointStream_AVR8.o
 .debug_info    0x0000c167      0x60c hardware/usb/lufa/LUFA/Drivers/USB/Core/AVR8/Endpoint_AVR8.o
 .debug_info    0x0000c773      0x4ca hardware/usb/lufa/LUFA/Drivers/USB/Core/AVR8/USBController_AVR8.o
 .debug_info    0x0000cc3d      0x7c8 hardware/usb/lufa/LUFA/Drivers/USB/Core/AVR8/USBInterrupt_AVR8.o
 .debug_info    0x0000d405      0xa88 hardware/usb/lufa/LUFA/Drivers/USB/Core/DeviceStandardReq.o
 .debug_info    0x0000de8d       0x78 hardware/usb/lufa/LUFA/Drivers/USB/Core/Events.o
 .debug_info    0x0000df05      0x26b hardware/usb/lufa/LUFA/Drivers/USB/Core/USBTask.o
 .debug_info    0x0000e170      0x995 hardware/usb/midi/Descriptors.o
 .debug_info    0x0000eb05     0x4107 init/Init.o
 .debug_info    0x00012c0c     0x3f15 interface/buttons/Buttons.o
 .debug_info    0x00016b21     0x1253 interface/buttons/Map.o
 .debug_info    0x00017d74     0x2c7c interface/buttons/UpdateLogic.o
 .debug_info    0x0001a9f0     0x3f1e interface/encoders/Encoders.o
 .debug_info    0x0001e90e     0x1833 interface/lcd/Layout.o
 .debug_info    0x00020141     0x40c4 interface/lcd/menu/functions/MenuFunctions.o
 .debug_info    0x00024205     0x1e73 interface/lcd/menu/layout/ServiceMenu.o
 .debug_info    0x00026078     0x1f62 interface/lcd/menu/layout/UserMenu.o
 .debug_info    0x00027fda     0x4111 interface/lcd/menu/Menu.o
 .debug_info    0x0002c0eb     0x8bfd interface/lcd/MessageBuilder.o
 .debug_info    0x00034ce8     0x1eee interface/lcd/UpdateLogic.o
 .debug_info    0x00036bd6     0x2c17 interface/leds/LEDs.o
 .debug_info    0x000397ed     0x2b00 interface/pads/curves/Curves.o
 .debug_info    0x0003c2ed     0x3886 interface/pads/DataOutput.o
 .debug_info    0x0003fb73     0x45ee interface/pads/DataProcessing.o
 .debug_info    0x00044161     0x3284 interface/pads/EditMode.o
 .debug_info    0x000473e5     0x6098 interface/pads/Getters.o
 .debug_info    0x0004d47d     0x282e interface/pads/HardwareControl.o
 .debug_info    0x0004fcab     0x2500 interface/pads/Pads.o
 .debug_info    0x000521ab     0x2668 interface/pads/Scaling.o
 .debug_info    0x00054813     0x4e3e interface/pads/Setters.o
 .debug_info    0x00059651     0x24f7 sysex/SysEx.o
 .debug_info    0x0005bb48      0xfeb version/Firmware.o
 .debug_info    0x0005cb33     0x416b Zvuk9.o
 .debug_info    0x00060c9e     0x3977 midi/MIDI.o
 .debug_info    0x00064615      0x279 Scales.o

.debug_abbrev   0x00000000     0x8894
 *(.debug_abbrev)
 .debug_abbrev  0x00000000      0x910 c:/program files (x86)/atmel/studio/7.0/toolchain/avr8/avr8-gnu-toolchain/bin/../lib/gcc/avr/4.9.2/../../../../avr/lib/avr51/crtat90usb1286.o
 .debug_abbrev  0x00000910      0x4b2 eeprom/Configuration.o
 .debug_abbrev  0x00000dc2      0x209 eeprom/MemoryLayout.o
 .debug_abbrev  0x00000fcb      0x122 hardware/adc/ADC.o
 .debug_abbrev  0x000010ed      0x15a hardware/i2c/i2c_master.o
 .debug_abbrev  0x00001247      0x2a3 hardware/lcd/lcd.o
 .debug_abbrev  0x000014ea      0x52a hardware/midi/MIDI.o
 .debug_abbrev  0x00001a14      0x39a hardware/timer/TimerObject.o
 .debug_abbrev  0x00001dae      0x1e2 hardware/uart/UART.o
 .debug_abbrev  0x00001f90      0x232 hardware/usb/lufa/LUFA/Drivers/USB/Class/Device/MIDIClassDevice.o
 .debug_abbrev  0x000021c2      0x204 hardware/usb/lufa/LUFA/Drivers/USB/Core/AVR8/EndpointStream_AVR8.o
 .debug_abbrev  0x000023c6      0x220 hardware/usb/lufa/LUFA/Drivers/USB/Core/AVR8/Endpoint_AVR8.o
 .debug_abbrev  0x000025e6      0x188 hardware/usb/lufa/LUFA/Drivers/USB/Core/AVR8/USBController_AVR8.o
 .debug_abbrev  0x0000276e      0x23e hardware/usb/lufa/LUFA/Drivers/USB/Core/AVR8/USBInterrupt_AVR8.o
 .debug_abbrev  0x000029ac      0x2cb hardware/usb/lufa/LUFA/Drivers/USB/Core/DeviceStandardReq.o
 .debug_abbrev  0x00002c77       0x44 hardware/usb/lufa/LUFA/Drivers/USB/Core/Events.o
 .debug_abbrev  0x00002cbb      0x168 hardware/usb/lufa/LUFA/Drivers/USB/Core/USBTask.o
 .debug_abbrev  0x00002e23      0x177 hardware/usb/midi/Descriptors.o
 .debug_abbrev  0x00002f9a      0x3c3 init/Init.o
 .debug_abbrev  0x0000335d      0x3c7 interface/buttons/Buttons.o
 .debug_abbrev  0x00003724      0x197 interface/buttons/Map.o
 .debug_abbrev  0x000038bb      0x4b6 interface/buttons/UpdateLogic.o
 .debug_abbrev  0x00003d71      0x41e interface/encoders/Encoders.o
 .debug_abbrev  0x0000418f      0x1b6 interface/lcd/Layout.o
 .debug_abbrev  0x00004345      0x388 interface/lcd/menu/functions/MenuFunctions.o
 .debug_abbrev  0x000046cd      0x237 interface/lcd/menu/layout/ServiceMenu.o
 .debug_abbrev  0x00004904      0x254 interface/lcd/menu/layout/UserMenu.o
 .debug_abbrev  0x00004b58      0x4bc interface/lcd/menu/Menu.o
 .debug_abbrev  0x00005014      0x51b interface/lcd/MessageBuilder.o
 .debug_abbrev  0x0000552f      0x3d6 interface/lcd/UpdateLogic.o
 .debug_abbrev  0x00005905      0x338 interface/leds/LEDs.o
 .debug_abbrev  0x00005c3d      0x3ae interface/pads/curves/Curves.o
 .debug_abbrev  0x00005feb      0x30f interface/pads/DataOutput.o
 .debug_abbrev  0x000062fa      0x458 interface/pads/DataProcessing.o
 .debug_abbrev  0x00006752      0x304 interface/pads/EditMode.o
 .debug_abbrev  0x00006a56      0x491 interface/pads/Getters.o
 .debug_abbrev  0x00006ee7      0x2b2 interface/pads/HardwareControl.o
 .debug_abbrev  0x00007199      0x29d interface/pads/Pads.o
 .debug_abbrev  0x00007436      0x25f interface/pads/Scaling.o
 .debug_abbrev  0x00007695      0x4a3 interface/pads/Setters.o
 .debug_abbrev  0x00007b38      0x427 sysex/SysEx.o
 .debug_abbrev  0x00007f5f      0x146 version/Firmware.o
 .debug_abbrev  0x000080a5      0x321 Zvuk9.o
 .debug_abbrev  0x000083c6      0x401 midi/MIDI.o
 .debug_abbrev  0x000087c7       0xcd Scales.o

.debug_line     0x00000000    0x13583
 *(.debug_line .debug_line.* .debug_line_end)
 .debug_line    0x00000000       0x1a c:/program files (x86)/atmel/studio/7.0/toolchain/avr8/avr8-gnu-toolchain/bin/../lib/gcc/avr/4.9.2/../../../../avr/lib/avr51/crtat90usb1286.o
 .debug_line    0x0000001a      0xa65 eeprom/Configuration.o
 .debug_line    0x00000a7f      0x361 eeprom/MemoryLayout.o
 .debug_line    0x00000de0      0x241 hardware/adc/ADC.o
 .debug_line    0x00001021      0x323 hardware/i2c/i2c_master.o
 .debug_line    0x00001344      0x5c7 hardware/lcd/lcd.o
 .debug_line    0x0000190b     0x1284 hardware/midi/MIDI.o
 .debug_line    0x00002b8f      0x6bd hardware/timer/TimerObject.o
 .debug_line    0x0000324c      0x2ca hardware/uart/UART.o
 .debug_line    0x00003516      0x400 hardware/usb/lufa/LUFA/Drivers/USB/Class/Device/MIDIClassDevice.o
 .debug_line    0x00003916     0x187b hardware/usb/lufa/LUFA/Drivers/USB/Core/AVR8/EndpointStream_AVR8.o
 .debug_line    0x00005191      0x5b1 hardware/usb/lufa/LUFA/Drivers/USB/Core/AVR8/Endpoint_AVR8.o
 .debug_line    0x00005742      0x35d hardware/usb/lufa/LUFA/Drivers/USB/Core/AVR8/USBController_AVR8.o
 .debug_line    0x00005a9f      0x5a1 hardware/usb/lufa/LUFA/Drivers/USB/Core/AVR8/USBInterrupt_AVR8.o
 .debug_line    0x00006040      0x4fb hardware/usb/lufa/LUFA/Drivers/USB/Core/DeviceStandardReq.o
 .debug_line    0x0000653b       0x61 hardware/usb/lufa/LUFA/Drivers/USB/Core/Events.o
 .debug_line    0x0000659c      0x1c2 hardware/usb/lufa/LUFA/Drivers/USB/Core/USBTask.o
 .debug_line    0x0000675e      0x2bd hardware/usb/midi/Descriptors.o
 .debug_line    0x00006a1b      0x55f init/Init.o
 .debug_line    0x00006f7a      0x755 interface/buttons/Buttons.o
 .debug_line    0x000076cf      0x2bd interface/buttons/Map.o
 .debug_line    0x0000798c      0x798 interface/buttons/UpdateLogic.o
 .debug_line    0x00008124      0x6cf interface/encoders/Encoders.o
 .debug_line    0x000087f3      0x22b interface/lcd/Layout.o
 .debug_line    0x00008a1e      0x85c interface/lcd/menu/functions/MenuFunctions.o
 .debug_line    0x0000927a      0x400 interface/lcd/menu/layout/ServiceMenu.o
 .debug_line    0x0000967a      0x54a interface/lcd/menu/layout/UserMenu.o
 .debug_line    0x00009bc4      0x96a interface/lcd/menu/Menu.o
 .debug_line    0x0000a52e     0x1a86 interface/lcd/MessageBuilder.o
 .debug_line    0x0000bfb4      0x615 interface/lcd/UpdateLogic.o
 .debug_line    0x0000c5c9      0x4a7 interface/leds/LEDs.o
 .debug_line    0x0000ca70      0x519 interface/pads/curves/Curves.o
 .debug_line    0x0000cf89      0x512 interface/pads/DataOutput.o
 .debug_line    0x0000d49b      0xdfa interface/pads/DataProcessing.o
 .debug_line    0x0000e295      0x319 interface/pads/EditMode.o
 .debug_line    0x0000e5ae     0x1b8f interface/pads/Getters.o
 .debug_line    0x0001013d      0x610 interface/pads/HardwareControl.o
 .debug_line    0x0001074d      0x2e4 interface/pads/Pads.o
 .debug_line    0x00010a31      0x315 interface/pads/Scaling.o
 .debug_line    0x00010d46     0x10d1 interface/pads/Setters.o
 .debug_line    0x00011e17      0x90f sysex/SysEx.o
 .debug_line    0x00012726      0x2e2 version/Firmware.o
 .debug_line    0x00012a08      0x40f Zvuk9.o
 .debug_line    0x00012e17      0x64e midi/MIDI.o
 .debug_line    0x00013465      0x11e Scales.o

.debug_frame    0x00000000     0x43a8
 *(.debug_frame)
 .debug_frame   0x00000000      0x33c eeprom/Configuration.o
 .debug_frame   0x0000033c       0x24 eeprom/MemoryLayout.o
 .debug_frame   0x00000360       0xbc hardware/adc/ADC.o
 .debug_frame   0x0000041c      0x15c hardware/i2c/i2c_master.o
 .debug_frame   0x00000578      0x134 hardware/lcd/lcd.o
 .debug_frame   0x000006ac      0x45c hardware/midi/MIDI.o
 .debug_frame   0x00000b08      0x20c hardware/timer/TimerObject.o
 .debug_frame   0x00000d14      0x104 hardware/uart/UART.o
 .debug_frame   0x00000e18       0x70 hardware/usb/lufa/LUFA/Drivers/USB/Class/Device/MIDIClassDevice.o
 .debug_frame   0x00000e88      0x5c4 hardware/usb/lufa/LUFA/Drivers/USB/Core/AVR8/EndpointStream_AVR8.o
 .debug_frame   0x0000144c       0xf4 hardware/usb/lufa/LUFA/Drivers/USB/Core/AVR8/Endpoint_AVR8.o
 .debug_frame   0x00001540       0x58 hardware/usb/lufa/LUFA/Drivers/USB/Core/AVR8/USBController_AVR8.o
 .debug_frame   0x00001598      0x100 hardware/usb/lufa/LUFA/Drivers/USB/Core/AVR8/USBInterrupt_AVR8.o
 .debug_frame   0x00001698       0x40 hardware/usb/lufa/LUFA/Drivers/USB/Core/DeviceStandardReq.o
 .debug_frame   0x000016d8       0x24 hardware/usb/lufa/LUFA/Drivers/USB/Core/Events.o
 .debug_frame   0x000016fc       0x2c hardware/usb/lufa/LUFA/Drivers/USB/Core/USBTask.o
 .debug_frame   0x00001728       0x24 hardware/usb/midi/Descriptors.o
 .debug_frame   0x0000174c       0x80 init/Init.o
 .debug_frame   0x000017cc       0xc8 interface/buttons/Buttons.o
 .debug_frame   0x00001894       0x34 interface/buttons/Map.o
 .debug_frame   0x000018c8      0x188 interface/buttons/UpdateLogic.o
 .debug_frame   0x00001a50       0xf4 interface/encoders/Encoders.o
 .debug_frame   0x00001b44       0x24 interface/lcd/Layout.o
 .debug_frame   0x00001b68      0x134 interface/lcd/menu/functions/MenuFunctions.o
 .debug_frame   0x00001c9c       0x24 interface/lcd/menu/layout/ServiceMenu.o
 .debug_frame   0x00001cc0       0x24 interface/lcd/menu/layout/UserMenu.o
 .debug_frame   0x00001ce4      0x208 interface/lcd/menu/Menu.o
 .debug_frame   0x00001eec      0x93c interface/lcd/MessageBuilder.o
 .debug_frame   0x00002828      0x1b8 interface/lcd/UpdateLogic.o
 .debug_frame   0x000029e0      0x13c interface/leds/LEDs.o
 .debug_frame   0x00002b1c      0x138 interface/pads/curves/Curves.o
 .debug_frame   0x00002c54      0x1d8 interface/pads/DataOutput.o
 .debug_frame   0x00002e2c      0x3a8 interface/pads/DataProcessing.o
 .debug_frame   0x000031d4       0xc0 interface/pads/EditMode.o
 .debug_frame   0x00003294      0x49c interface/pads/Getters.o
 .debug_frame   0x00003730       0xdc interface/pads/HardwareControl.o
 .debug_frame   0x0000380c       0x84 interface/pads/Pads.o
 .debug_frame   0x00003890       0xe8 interface/pads/Scaling.o
 .debug_frame   0x00003978      0x4dc interface/pads/Setters.o
 .debug_frame   0x00003e54      0x2c8 sysex/SysEx.o
 .debug_frame   0x0000411c       0x34 version/Firmware.o
 .debug_frame   0x00004150       0x74 Zvuk9.o
 .debug_frame   0x000041c4      0x1b0 midi/MIDI.o
 .debug_frame   0x00004374       0x34 Scales.o

.debug_str      0x00000000     0xab28
 *(.debug_str)
 .debug_str     0x00000000      0x349 c:/program files (x86)/atmel/studio/7.0/toolchain/avr8/avr8-gnu-toolchain/bin/../lib/gcc/avr/4.9.2/../../../../avr/lib/avr51/crtat90usb1286.o
 .debug_str     0x00000349     0x2ec3 eeprom/Configuration.o
                               0x31d6 (size before relaxing)
 .debug_str     0x0000320c       0x80 eeprom/MemoryLayout.o
                               0x2eed (size before relaxing)
 .debug_str     0x0000328c      0x1ee hardware/adc/ADC.o
                                0x3ce (size before relaxing)
 .debug_str     0x0000347a      0x15d hardware/i2c/i2c_master.o
                                0x307 (size before relaxing)
 .debug_str     0x000035d7      0x143 hardware/lcd/lcd.o
                                0x375 (size before relaxing)
 .debug_str     0x0000371a     0x123a hardware/midi/MIDI.o
                               0x162c (size before relaxing)
 .debug_str     0x00004954      0x443 hardware/timer/TimerObject.o
                                0x701 (size before relaxing)
 .debug_str     0x00004d97       0xe2 hardware/uart/UART.o
                                0x327 (size before relaxing)
 .debug_str     0x00004e79      0x375 hardware/usb/lufa/LUFA/Drivers/USB/Class/Device/MIDIClassDevice.o
                                0x673 (size before relaxing)
 .debug_str     0x000051ee      0x41f hardware/usb/lufa/LUFA/Drivers/USB/Core/AVR8/EndpointStream_AVR8.o
                                0x858 (size before relaxing)
 .debug_str     0x0000560d      0x181 hardware/usb/lufa/LUFA/Drivers/USB/Core/AVR8/Endpoint_AVR8.o
                                0x618 (size before relaxing)
 .debug_str     0x0000578e      0x292 hardware/usb/lufa/LUFA/Drivers/USB/Core/AVR8/USBController_AVR8.o
                                0x557 (size before relaxing)
 .debug_str     0x00005a20      0x1ea hardware/usb/lufa/LUFA/Drivers/USB/Core/AVR8/USBInterrupt_AVR8.o
                                0x5d6 (size before relaxing)
 .debug_str     0x00005c0a      0x566 hardware/usb/lufa/LUFA/Drivers/USB/Core/DeviceStandardReq.o
                                0x9ca (size before relaxing)
 .debug_str     0x00006170       0x43 hardware/usb/lufa/LUFA/Drivers/USB/Core/Events.o
                                0x19c (size before relaxing)
 .debug_str     0x000061b3       0x5d hardware/usb/lufa/LUFA/Drivers/USB/Core/USBTask.o
                                0x37d (size before relaxing)
 .debug_str     0x00006210      0xa32 hardware/usb/midi/Descriptors.o
                                0xd77 (size before relaxing)
 .debug_str     0x00006c42     0x20f1 init/Init.o
                               0x49c3 (size before relaxing)
 .debug_str     0x00008d33       0xb8 interface/buttons/Buttons.o
                               0x3ff3 (size before relaxing)
 .debug_str     0x00008deb       0x2e interface/buttons/Map.o
                               0x1466 (size before relaxing)
 .debug_str     0x00008e19       0xe2 interface/buttons/UpdateLogic.o
                               0x2a46 (size before relaxing)
 .debug_str     0x00008efb      0x144 interface/encoders/Encoders.o
                               0x4271 (size before relaxing)
 .debug_str     0x0000903f       0x1c interface/lcd/Layout.o
                               0x1e03 (size before relaxing)
 .debug_str     0x0000905b      0x244 interface/lcd/menu/functions/MenuFunctions.o
                               0x47ea (size before relaxing)
 .debug_str     0x0000929f      0x111 interface/lcd/menu/layout/ServiceMenu.o
                               0x2498 (size before relaxing)
 .debug_str     0x000093b0      0x325 interface/lcd/menu/layout/UserMenu.o
                               0x2752 (size before relaxing)
 .debug_str     0x000096d5      0x135 interface/lcd/menu/Menu.o
                               0x4315 (size before relaxing)
 .debug_str     0x0000980a      0x182 interface/lcd/MessageBuilder.o
                               0x3a30 (size before relaxing)
 .debug_str     0x0000998c       0x96 interface/lcd/UpdateLogic.o
                               0x1fc8 (size before relaxing)
 .debug_str     0x00009a22       0x5e interface/leds/LEDs.o
                               0x2c2b (size before relaxing)
 .debug_str     0x00009a80      0x1a0 interface/pads/curves/Curves.o
                               0x2acb (size before relaxing)
 .debug_str     0x00009c20       0x4d interface/pads/DataOutput.o
                               0x3b9d (size before relaxing)
 .debug_str     0x00009c6d      0x158 interface/pads/DataProcessing.o
                               0x3c6a (size before relaxing)
 .debug_str     0x00009dc5       0x31 interface/pads/EditMode.o
                               0x38fa (size before relaxing)
 .debug_str     0x00009df6       0xc7 interface/pads/Getters.o
                               0x48fa (size before relaxing)
 .debug_str     0x00009ebd      0x10b interface/pads/HardwareControl.o
                               0x2b58 (size before relaxing)
 .debug_str     0x00009fc8       0x37 interface/pads/Pads.o
                               0x292e (size before relaxing)
 .debug_str     0x00009fff       0x50 interface/pads/Scaling.o
                               0x2905 (size before relaxing)
 .debug_str     0x0000a04f      0x18b interface/pads/Setters.o
                               0x49ee (size before relaxing)
 .debug_str     0x0000a1da      0x852 sysex/SysEx.o
                               0x1c4b (size before relaxing)
 .debug_str     0x0000aa2c       0x36 version/Firmware.o
                               0x115c (size before relaxing)
 .debug_str     0x0000aa62       0x88 Zvuk9.o
                               0x4ad4 (size before relaxing)
 .debug_str     0x0000aaea       0x2e midi/MIDI.o
                               0x3dd0 (size before relaxing)
 .debug_str     0x0000ab18       0x10 Scales.o
                                0x41f (size before relaxing)

.debug_loc      0x00000000    0x202b1
 *(.debug_loc)
 .debug_loc     0x00000000     0x1620 eeprom/Configuration.o
 .debug_loc     0x00001620      0x25c hardware/adc/ADC.o
 .debug_loc     0x0000187c      0x6b8 hardware/i2c/i2c_master.o
 .debug_loc     0x00001f34      0x535 hardware/lcd/lcd.o
 .debug_loc     0x00002469     0x2171 hardware/midi/MIDI.o
 .debug_loc     0x000045da      0x925 hardware/timer/TimerObject.o
 .debug_loc     0x00004eff      0x33a hardware/uart/UART.o
 .debug_loc     0x00005239      0x309 hardware/usb/lufa/LUFA/Drivers/USB/Class/Device/MIDIClassDevice.o
 .debug_loc     0x00005542     0x2708 hardware/usb/lufa/LUFA/Drivers/USB/Core/AVR8/EndpointStream_AVR8.o
 .debug_loc     0x00007c4a      0x5f9 hardware/usb/lufa/LUFA/Drivers/USB/Core/AVR8/Endpoint_AVR8.o
 .debug_loc     0x00008243       0x49 hardware/usb/lufa/LUFA/Drivers/USB/Core/AVR8/USBController_AVR8.o
 .debug_loc     0x0000828c      0x397 hardware/usb/lufa/LUFA/Drivers/USB/Core/AVR8/USBInterrupt_AVR8.o
 .debug_loc     0x00008623      0x2ea hardware/usb/lufa/LUFA/Drivers/USB/Core/DeviceStandardReq.o
 .debug_loc     0x0000890d       0x49 hardware/usb/lufa/LUFA/Drivers/USB/Core/USBTask.o
 .debug_loc     0x00008956      0x226 hardware/usb/midi/Descriptors.o
 .debug_loc     0x00008b7c       0xec init/Init.o
 .debug_loc     0x00008c68      0x846 interface/buttons/Buttons.o
 .debug_loc     0x000094ae       0x4c interface/buttons/Map.o
 .debug_loc     0x000094fa      0x8aa interface/buttons/UpdateLogic.o
 .debug_loc     0x00009da4      0x5ca interface/encoders/Encoders.o
 .debug_loc     0x0000a36e      0x38d interface/lcd/menu/functions/MenuFunctions.o
 .debug_loc     0x0000a6fb       0x26 interface/lcd/menu/layout/UserMenu.o
 .debug_loc     0x0000a721      0xd65 interface/lcd/menu/Menu.o
 .debug_loc     0x0000b486     0x6caf interface/lcd/MessageBuilder.o
 .debug_loc     0x00012135      0xa3b interface/lcd/UpdateLogic.o
 .debug_loc     0x00012b70      0x5a2 interface/leds/LEDs.o
 .debug_loc     0x00013112      0x7cb interface/pads/curves/Curves.o
 .debug_loc     0x000138dd      0xb05 interface/pads/DataOutput.o
 .debug_loc     0x000143e2     0x1c84 interface/pads/DataProcessing.o
 .debug_loc     0x00016066      0x2d7 interface/pads/EditMode.o
 .debug_loc     0x0001633d     0x44f7 interface/pads/Getters.o
 .debug_loc     0x0001a834      0x222 interface/pads/HardwareControl.o
 .debug_loc     0x0001aa56      0x1c3 interface/pads/Pads.o
 .debug_loc     0x0001ac19      0x7ad interface/pads/Scaling.o
 .debug_loc     0x0001b3c6     0x31ac interface/pads/Setters.o
 .debug_loc     0x0001e572     0x10ff sysex/SysEx.o
 .debug_loc     0x0001f671       0xc7 version/Firmware.o
 .debug_loc     0x0001f738       0x63 Zvuk9.o
 .debug_loc     0x0001f79b      0x9f3 midi/MIDI.o
 .debug_loc     0x0002018e      0x123 Scales.o

.debug_macinfo
 *(.debug_macinfo)

.debug_weaknames
 *(.debug_weaknames)

.debug_funcnames
 *(.debug_funcnames)

.debug_typenames
 *(.debug_typenames)

.debug_varnames
 *(.debug_varnames)

.debug_pubtypes
 *(.debug_pubtypes)

.debug_ranges   0x00000000     0x2658
 *(.debug_ranges)
 .debug_ranges  0x00000000      0x128 eeprom/Configuration.o
 .debug_ranges  0x00000128       0x10 eeprom/MemoryLayout.o
 .debug_ranges  0x00000138       0x48 hardware/adc/ADC.o
 .debug_ranges  0x00000180       0x88 hardware/i2c/i2c_master.o
 .debug_ranges  0x00000208       0x90 hardware/lcd/lcd.o
 .debug_ranges  0x00000298      0x250 hardware/midi/MIDI.o
 .debug_ranges  0x000004e8       0xc0 hardware/timer/TimerObject.o
 .debug_ranges  0x000005a8       0x48 hardware/uart/UART.o
 .debug_ranges  0x000005f0       0x30 hardware/usb/lufa/LUFA/Drivers/USB/Class/Device/MIDIClassDevice.o
 .debug_ranges  0x00000620      0x918 hardware/usb/lufa/LUFA/Drivers/USB/Core/AVR8/EndpointStream_AVR8.o
 .debug_ranges  0x00000f38      0x1a8 hardware/usb/lufa/LUFA/Drivers/USB/Core/AVR8/Endpoint_AVR8.o
 .debug_ranges  0x000010e0       0x20 hardware/usb/lufa/LUFA/Drivers/USB/Core/AVR8/USBController_AVR8.o
 .debug_ranges  0x00001100       0x40 hardware/usb/lufa/LUFA/Drivers/USB/Core/AVR8/USBInterrupt_AVR8.o
 .debug_ranges  0x00001140       0x58 hardware/usb/lufa/LUFA/Drivers/USB/Core/DeviceStandardReq.o
 .debug_ranges  0x00001198       0x10 hardware/usb/lufa/LUFA/Drivers/USB/Core/Events.o
 .debug_ranges  0x000011a8       0x10 hardware/usb/lufa/LUFA/Drivers/USB/Core/USBTask.o
 .debug_ranges  0x000011b8       0x10 hardware/usb/midi/Descriptors.o
 .debug_ranges  0x000011c8       0x20 init/Init.o
 .debug_ranges  0x000011e8       0x38 interface/buttons/Buttons.o
 .debug_ranges  0x00001220       0x18 interface/buttons/Map.o
 .debug_ranges  0x00001238       0x88 interface/buttons/UpdateLogic.o
 .debug_ranges  0x000012c0       0x50 interface/encoders/Encoders.o
 .debug_ranges  0x00001310       0x10 interface/lcd/Layout.o
 .debug_ranges  0x00001320       0x78 interface/lcd/menu/functions/MenuFunctions.o
 .debug_ranges  0x00001398       0x10 interface/lcd/menu/layout/ServiceMenu.o
 .debug_ranges  0x000013a8       0x10 interface/lcd/menu/layout/UserMenu.o
 .debug_ranges  0x000013b8       0xd0 interface/lcd/menu/Menu.o
 .debug_ranges  0x00001488      0x2b8 interface/lcd/MessageBuilder.o
 .debug_ranges  0x00001740       0x80 interface/lcd/UpdateLogic.o
 .debug_ranges  0x000017c0       0x80 interface/leds/LEDs.o
 .debug_ranges  0x00001840       0x50 interface/pads/curves/Curves.o
 .debug_ranges  0x00001890      0x100 interface/pads/DataOutput.o
 .debug_ranges  0x00001990      0x198 interface/pads/DataProcessing.o
 .debug_ranges  0x00001b28       0x30 interface/pads/EditMode.o
 .debug_ranges  0x00001b58      0x570 interface/pads/Getters.o
 .debug_ranges  0x000020c8       0x60 interface/pads/HardwareControl.o
 .debug_ranges  0x00002128       0x38 interface/pads/Pads.o
 .debug_ranges  0x00002160       0x20 interface/pads/Scaling.o
 .debug_ranges  0x00002180      0x298 interface/pads/Setters.o
 .debug_ranges  0x00002418       0xf8 sysex/SysEx.o
 .debug_ranges  0x00002510       0x18 version/Firmware.o
 .debug_ranges  0x00002528       0x38 Zvuk9.o
 .debug_ranges  0x00002560       0xe0 midi/MIDI.o
 .debug_ranges  0x00002640       0x18 Scales.o

.debug_macro
 *(.debug_macro)
OUTPUT(Firmware.elf elf32-avr)
LOAD linker stubs
